(dp1
S'output'
p2
S"<type 'exceptions.TypeError'> create() got multiple values for keyword argument 'next'"
p3
sS'layer'
p4
S'/home/dunga/web2py/applications/safaritext/controllers/default.py'
p5
sS'code'
p6
S'<code object <module> at 0x7fdca797bb30, file "/home/dunga/web2py/applications/safaritext/controllers/default.py", line 1>'
p7
sS'snapshot'
p8
(dp9
sS'traceback'
p10
S'Traceback (most recent call last):\n  File "/home/dunga/web2py/gluon/restricted.py", line 219, in restricted\n    exec(ccode, environment)\n  File "/home/dunga/web2py/applications/safaritext/controllers/default.py", line 217, in <module>\n  File "/home/dunga/web2py/gluon/globals.py", line 414, in <lambda>\n    self._caller = lambda f: f()\n  File "/home/dunga/web2py/gluon/tools.py", line 3981, in f\n    return action(*a, **b)\n  File "/home/dunga/web2py/applications/safaritext/controllers/default.py", line 15, in write\n    form = crud.create(db.page, INPUT(_type=\'text\', _name=\'title\', requires=IS_LENGTH(maxsize=5)),  next = URL(r=request, f=\'index\'))\nTypeError: create() got multiple values for keyword argument \'next\'\n'
p11
s.