(dp1
S'output'
p2
S"<type 'exceptions.NameError'> name 'category' is not defined"
p3
sS'layer'
p4
S'/home/dunga/web2py/applications/safaritext/models/db.py'
p5
sS'code'
p6
S'<code object <module> at 0x7fbbd050a1b0, file "/home/dunga/web2py/applications/safaritext/models/db.py", line 3>'
p7
sS'snapshot'
p8
(dp9
S'exception'
p10
(dp11
S'__getslice__'
p12
S"<method-wrapper '__getslice__' of exceptions.NameError object>"
p13
sS'__str__'
p14
S"<method-wrapper '__str__' of exceptions.NameError object>"
p15
sS'__reduce__'
p16
S'<built-in method __reduce__ of exceptions.NameError object>'
p17
sS'__dict__'
p18
S'{}'
p19
sS'message'
p20
S'"name \'category\' is not defined"'
p21
sS'__sizeof__'
p22
S'<built-in method __sizeof__ of exceptions.NameError object>'
p23
sS'__init__'
p24
S"<method-wrapper '__init__' of exceptions.NameError object>"
p25
sS'__setattr__'
p26
S"<method-wrapper '__setattr__' of exceptions.NameError object>"
p27
sS'__reduce_ex__'
p28
S'<built-in method __reduce_ex__ of exceptions.NameError object>'
p29
sS'__new__'
p30
S'<built-in method __new__ of type object>'
p31
sS'__format__'
p32
S'<built-in method __format__ of exceptions.NameError object>'
p33
sS'__class__'
p34
S"<type 'exceptions.NameError'>"
p35
sS'__doc__'
p36
S"'Name not found globally.'"
p37
sS'__getitem__'
p38
S"<method-wrapper '__getitem__' of exceptions.NameError object>"
p39
sS'__setstate__'
p40
S'<built-in method __setstate__ of exceptions.NameError object>'
p41
sS'__getattribute__'
p42
S"<method-wrapper '__getattribute__' of exceptions.NameError object>"
p43
sS'args'
p44
S'("name \'category\' is not defined",)'
p45
sS'__subclasshook__'
p46
S'<built-in method __subclasshook__ of type object>'
p47
sS'__unicode__'
p48
S'<built-in method __unicode__ of exceptions.NameError object>'
p49
sS'__delattr__'
p50
S"<method-wrapper '__delattr__' of exceptions.NameError object>"
p51
sS'__repr__'
p52
S"<method-wrapper '__repr__' of exceptions.NameError object>"
p53
sS'__hash__'
p54
S"<method-wrapper '__hash__' of exceptions.NameError object>"
p55
ssS'evalue'
p56
S"name 'category' is not defined"
p57
sS'request'
p58
cgluon.html
XML_unpickle
p59
(S's\xa6V\x00\x00<div><table><tr><td style="font-weight:bold;vertical-align:top;">ajax</td><td style="vertical-align:top;">:</td><td><div>False</div></td></tr><tr><td style="font-weight:bold;vertical-align:top;">application</td><td style="vertical-align:top;">:</td><td><div>safaritext</div></td></tr><tr><td style="font-weight:bold;vertical-align:top;">args</td><td style="vertical-align:top;">:</td><td><div><table></table></div></td></tr><tr><td style="font-weight:bold;vertical-align:top;">cid</td><td style="vertical-align:top;">:</td><td><div>None</div></td></tr><tr><td style="font-weight:bold;vertical-align:top;">client</td><td style="vertical-align:top;">:</td><td><div>127.0.0.1</div></td></tr><tr><td style="font-weight:bold;vertical-align:top;">controller</td><td style="vertical-align:top;">:</td><td><div>default</div></td></tr><tr><td style="font-weight:bold;vertical-align:top;">cookies</td><td style="vertical-align:top;">:</td><td><div><table><tr><td style="font-weight:bold;vertical-align:top;">session_id_admin</td><td style="vertical-align:top;">:</td><td><div>127.0.0.1-1a11501f-1834-4c04-a5ac-4eb77d3f8e7e<table><tr><td style="font-weight:bold;vertical-align:top;">comment</td><td style="vertical-align:top;">:</td><td><div></div></td></tr><tr><td style="font-weight:bold;vertical-align:top;">domain</td><td style="vertical-align:top;">:</td><td><div></div></td></tr><tr><td style="font-weight:bold;vertical-align:top;">expires</td><td style="vertical-align:top;">:</td><td><div></div></td></tr><tr><td style="font-weight:bold;vertical-align:top;">httponly</td><td style="vertical-align:top;">:</td><td><div></div></td></tr><tr><td style="font-weight:bold;vertical-align:top;">max-age</td><td style="vertical-align:top;">:</td><td><div></div></td></tr><tr><td style="font-weight:bold;vertical-align:top;">path</td><td style="vertical-align:top;">:</td><td><div></div></td></tr><tr><td style="font-weight:bold;vertical-align:top;">secure</td><td style="vertical-align:top;">:</td><td><div></div></td></tr><tr><td style="font-weight:bold;vertical-align:top;">version</td><td style="vertical-align:top;">:</td><td><div></div></td></tr></table></div></td></tr><tr><td style="font-weight:bold;vertical-align:top;">session_id_safaritext</td><td style="vertical-align:top;">:</td><td><div>127.0.0.1-781b428f-5383-4b8a-ae3e-c4938ae7fc2a<table><tr><td style="font-weight:bold;vertical-align:top;">comment</td><td style="vertical-align:top;">:</td><td><div></div></td></tr><tr><td style="font-weight:bold;vertical-align:top;">domain</td><td style="vertical-align:top;">:</td><td><div></div></td></tr><tr><td style="font-weight:bold;vertical-align:top;">expires</td><td style="vertical-align:top;">:</td><td><div></div></td></tr><tr><td style="font-weight:bold;vertical-align:top;">httponly</td><td style="vertical-align:top;">:</td><td><div></div></td></tr><tr><td style="font-weight:bold;vertical-align:top;">max-age</td><td style="vertical-align:top;">:</td><td><div></div></td></tr><tr><td style="font-weight:bold;vertical-align:top;">path</td><td style="vertical-align:top;">:</td><td><div></div></td></tr><tr><td style="font-weight:bold;vertical-align:top;">secure</td><td style="vertical-align:top;">:</td><td><div></div></td></tr><tr><td style="font-weight:bold;vertical-align:top;">version</td><td style="vertical-align:top;">:</td><td><div></div></td></tr></table></div></td></tr></table></div></td></tr><tr><td style="font-weight:bold;vertical-align:top;">env</td><td style="vertical-align:top;">:</td><td><div><table><tr><td style="font-weight:bold;vertical-align:top;">HTTP_ACCEPT</td><td style="vertical-align:top;">:</td><td><div>text/html,application/xhtml+xml,application/xml;q=0.9,*/*;q=0.8</div></td></tr><tr><td style="font-weight:bold;vertical-align:top;">HTTP_ACCEPT_ENCODING</td><td style="vertical-align:top;">:</td><td><div>gzip, deflate</div></td></tr><tr><td style="font-weight:bold;vertical-align:top;">HTTP_ACCEPT_LANGUAGE</td><td style="vertical-align:top;">:</td><td><div>en-US,en;q=0.5</div></td></tr><tr><td style="font-weight:bold;vertical-align:top;">HTTP_CACHE_CONTROL</td><td style="vertical-align:top;">:</td><td><div>max-age=0</div></td></tr><tr><td style="font-weight:bold;vertical-align:top;">HTTP_CONNECTION</td><td style="vertical-align:top;">:</td><td><div>keep-alive</div></td></tr><tr><td style="font-weight:bold;vertical-align:top;">HTTP_COOKIE</td><td style="vertical-align:top;">:</td><td><div>session_id_safaritext=127.0.0.1-781b428f-5383-4b8a-ae3e-c4938ae7fc2a; session_id_admin=127.0.0.1-1a11501f-1834-4c04-a5ac-4eb77d3f8e7e</div></td></tr><tr><td style="font-weight:bold;vertical-align:top;">HTTP_HOST</td><td style="vertical-align:top;">:</td><td><div>127.0.0.1:8000</div></td></tr><tr><td style="font-weight:bold;vertical-align:top;">HTTP_REFERER</td><td style="vertical-align:top;">:</td><td><div>http://127.0.0.1:8000/languages</div></td></tr><tr><td style="font-weight:bold;vertical-align:top;">HTTP_UPGRADE_INSECURE_REQUESTS</td><td style="vertical-align:top;">:</td><td><div>1</div></td></tr><tr><td style="font-weight:bold;vertical-align:top;">HTTP_USER_AGENT</td><td style="vertical-align:top;">:</td><td><div>Mozilla/5.0 (X11; Ubuntu; Linux x86_64; rv:55.0) Gecko/20100101 Firefox/55.0</div></td></tr><tr><td style="font-weight:bold;vertical-align:top;">PATH_INFO</td><td style="vertical-align:top;">:</td><td><div>/</div></td></tr><tr><td style="font-weight:bold;vertical-align:top;">QUERY_STRING</td><td style="vertical-align:top;">:</td><td><div></div></td></tr><tr><td style="font-weight:bold;vertical-align:top;">REMOTE_ADDR</td><td style="vertical-align:top;">:</td><td><div>127.0.0.1</div></td></tr><tr><td style="font-weight:bold;vertical-align:top;">REMOTE_PORT</td><td style="vertical-align:top;">:</td><td><div>46184</div></td></tr><tr><td style="font-weight:bold;vertical-align:top;">REQUEST_METHOD</td><td style="vertical-align:top;">:</td><td><div>GET</div></td></tr><tr><td style="font-weight:bold;vertical-align:top;">SCRIPT_NAME</td><td style="vertical-align:top;">:</td><td><div></div></td></tr><tr><td style="font-weight:bold;vertical-align:top;">SERVER_NAME</td><td style="vertical-align:top;">:</td><td><div>dunga-Satellite-Pro-U400</div></td></tr><tr><td style="font-weight:bold;vertical-align:top;">SERVER_PORT</td><td style="vertical-align:top;">:</td><td><div>8000</div></td></tr><tr><td style="font-weight:bold;vertical-align:top;">SERVER_PROTOCOL</td><td style="vertical-align:top;">:</td><td><div>HTTP/1.1</div></td></tr><tr><td style="font-weight:bold;vertical-align:top;">SERVER_SOFTWARE</td><td style="vertical-align:top;">:</td><td><div>Rocket 1.2.6</div></td></tr><tr><td style="font-weight:bold;vertical-align:top;">app_folders</td><td style="vertical-align:top;">:</td><td><div>set([&#x27;/home/dunga/web2py/applications/safaritext/&#x27;, &#x27;/home/dunga/web2py/applications/admin/&#x27;])</div></td></tr><tr><td style="font-weight:bold;vertical-align:top;">applications_parent</td><td style="vertical-align:top;">:</td><td><div>/home/dunga/web2py</div></td></tr><tr><td style="font-weight:bold;vertical-align:top;">cmd_args</td><td style="vertical-align:top;">:</td><td><div><table></table></div></td></tr><tr><td style="font-weight:bold;vertical-align:top;">cmd_options</td><td style="vertical-align:top;">:</td><td><div>&lt;Values at 0x7fbbd1a31200: {&#x27;verbose&#x27;: False, &#x27;ip&#x27;: &#x27;127.0.0.1&#x27;, &#x27;debuglevel&#x27;: 30, &#x27;with_scheduler&#x27;: False, &#x27;shutdown_timeout&#x27;: 5, &#x27;taskbar&#x27;: False, &#x27;with_coverage&#x27;: False, &#x27;pid_filename&#x27;: &#x27;httpserver.pid&#x27;, &#x27;maxthreads&#x27;: None, &#x27;softcron&#x27;: False, &#x27;server_name&#x27;: &#x27;dunga-Satellite-Pro-U400&#x27;, &#x27;bpython&#x27;: False, &#x27;nogui&#x27;: False, &#x27;port&#x27;: 8000, &#x27;print_errors&#x27;: False, &#x27;extcron&#x27;: False, &#x27;runcron&#x27;: False, &#x27;run_system_tests&#x27;: False, &#x27;test&#x27;: None, &#x27;folder&#x27;: &#x27;/home/dunga/web2py&#x27;, &#x27;config&#x27;: &#x27;&#x27;, &#x27;minthreads&#x27;: None, &#x27;shell&#x27;: None, &#x27;run&#x27;: &#x27;&#x27;, &#x27;log_filename&#x27;: &#x27;httpserver.log&#x27;, &#x27;profiler_dir&#x27;: None, &#x27;args&#x27;: [&#x27;&#x27;], &#x27;socket_timeout&#x27;: 5, &#x27;ssl_ca_certificate&#x27;: None, &#x27;scheduler&#x27;: None, &#x27;interfaces&#x27;: None, &#x27;ssl_private_key&#x27;: &#x27;&#x27;, &#x27;gae&#x27;: None, &#x27;password&#x27;: &#x27;******&#x27;, &#x27;request_queue_size&#x27;: 5, &#x27;ssl_certificate&#x27;: &#x27;&#x27;, &#x27;cronjob&#x27;: False, &#x27;numthreads&#x27;: None, &#x27;quiet&#x27;: False, &#x27;import_models&#x27;: False, &#x27;timeout&#x27;: 10, &#x27;plain&#x27;: False, &#x27;nobanner&#x27;: False}&gt;</div></td></tr><tr><td style="font-weight:bold;vertical-align:top;">db_sessions</td><td style="vertical-align:top;">:</td><td><div>set([])</div></td></tr><tr><td style="font-weight:bold;vertical-align:top;">debugging</td><td style="vertical-align:top;">:</td><td><div>True</div></td></tr><tr><td style="font-weight:bold;vertical-align:top;">gluon_parent</td><td style="vertical-align:top;">:</td><td><div>/home/dunga/web2py</div></td></tr><tr><td style="font-weight:bold;vertical-align:top;">http_accept</td><td style="vertical-align:top;">:</td><td><div>text/html,application/xhtml+xml,application/xml;q=0.9,*/*;q=0.8</div></td></tr><tr><td style="font-weight:bold;vertical-align:top;">http_accept_encoding</td><td style="vertical-align:top;">:</td><td><div>gzip, deflate</div></td></tr><tr><td style="font-weight:bold;vertical-align:top;">http_accept_language</td><td style="vertical-align:top;">:</td><td><div>en-US,en;q=0.5</div></td></tr><tr><td style="font-weight:bold;vertical-align:top;">http_cache_control</td><td style="vertical-align:top;">:</td><td><div>max-age=0</div></td></tr><tr><td style="font-weight:bold;vertical-align:top;">http_connection</td><td style="vertical-align:top;">:</td><td><div>keep-alive</div></td></tr><tr><td style="font-weight:bold;vertical-align:top;">http_cookie</td><td style="vertical-align:top;">:</td><td><div>session_id_safaritext=127.0.0.1-781b428f-5383-4b8a-ae3e-c4938ae7fc2a; session_id_admin=127.0.0.1-1a11501f-1834-4c04-a5ac-4eb77d3f8e7e</div></td></tr><tr><td style="font-weight:bold;vertical-align:top;">http_host</td><td style="vertical-align:top;">:</td><td><div>127.0.0.1:8000</div></td></tr><tr><td style="font-weight:bold;vertical-align:top;">http_referer</td><td style="vertical-align:top;">:</td><td><div>http://127.0.0.1:8000/languages</div></td></tr><tr><td style="font-weight:bold;vertical-align:top;">http_upgrade_insecure_requests</td><td style="vertical-align:top;">:</td><td><div>1</div></td></tr><tr><td style="font-weight:bold;vertical-align:top;">http_user_agent</td><td style="vertical-align:top;">:</td><td><div>Mozilla/5.0 (X11; Ubuntu; Linux x86_64; rv:55.0) Gecko/20100101 Firefox/55.0</div></td></tr><tr><td style="font-weight:bold;vertical-align:top;">is_jython</td><td style="vertical-align:top;">:</td><td><div>False</div></td></tr><tr><td style="font-weight:bold;vertical-align:top;">is_py2</td><td style="vertical-align:top;">:</td><td><div>True</div></td></tr><tr><td style="font-weight:bold;vertical-align:top;">is_pypy</td><td style="vertical-align:top;">:</td><td><div>False</div></td></tr><tr><td style="font-weight:bold;vertical-align:top;">is_source</td><td style="vertical-align:top;">:</td><td><div>True</div></td></tr><tr><td style="font-weight:bold;vertical-align:top;">local_hosts</td><td style="vertical-align:top;">:</td><td><div><table><tr><td><div>::1</div></td></tr><tr><td><div>127.0.1.1</div></td></tr><tr><td><div>::ffff:127.0.0.1</div></td></tr><tr><td><div>127.0.0.1</div></td></tr><tr><td><div>dunga-Satellite-Pro-U400</div></td></tr></table></div></td></tr><tr><td style="font-weight:bold;vertical-align:top;">path_info</td><td style="vertical-align:top;">:</td><td><div>/</div></td></tr><tr><td style="font-weight:bold;vertical-align:top;">query_string</td><td style="vertical-align:top;">:</td><td><div></div></td></tr><tr><td style="font-weight:bold;vertical-align:top;">remote_addr</td><td style="vertical-align:top;">:</td><td><div>127.0.0.1</div></td></tr><tr><td style="font-weight:bold;vertical-align:top;">remote_port</td><td style="vertical-align:top;">:</td><td><div>46184</div></td></tr><tr><td style="font-weight:bold;vertical-align:top;">request_method</td><td style="vertical-align:top;">:</td><td><div>GET</div></td></tr><tr><td style="font-weight:bold;vertical-align:top;">request_uri</td><td style="vertical-align:top;">:</td><td><div>/safaritext/default/index</div></td></tr><tr><td style="font-weight:bold;vertical-align:top;">script_name</td><td style="vertical-align:top;">:</td><td><div></div></td></tr><tr><td style="font-weight:bold;vertical-align:top;">server_name</td><td style="vertical-align:top;">:</td><td><div>dunga-Satellite-Pro-U400</div></td></tr><tr><td style="font-weight:bold;vertical-align:top;">server_port</td><td style="vertical-align:top;">:</td><td><div>8000</div></td></tr><tr><td style="font-weight:bold;vertical-align:top;">server_protocol</td><td style="vertical-align:top;">:</td><td><div>HTTP/1.1</div></td></tr><tr><td style="font-weight:bold;vertical-align:top;">server_software</td><td style="vertical-align:top;">:</td><td><div>Rocket 1.2.6</div></td></tr><tr><td style="font-weight:bold;vertical-align:top;">web2py_original_uri</td><td style="vertical-align:top;">:</td><td><div>/</div></td></tr><tr><td style="font-weight:bold;vertical-align:top;">web2py_path</td><td style="vertical-align:top;">:</td><td><div>/home/dunga/web2py</div></td></tr><tr><td style="font-weight:bold;vertical-align:top;">web2py_version</td><td style="vertical-align:top;">:</td><td><div>2.15.4-stable+timestamp.2017.09.02.04.02.22</div></td></tr><tr><td style="font-weight:bold;vertical-align:top;">wsgi.errors</td><td style="vertical-align:top;">:</td><td><div>&lt;open file &#x27;&lt;stderr&gt;&#x27;, mode &#x27;w&#x27; at 0x7fbbd5a501e0&gt;</div></td></tr><tr><td style="font-weight:bold;vertical-align:top;">wsgi.file_wrapper</td><td style="vertical-align:top;">:</td><td><div>&lt;class wsgiref.util.FileWrapper at 0x7fbbd1a64258&gt;</div></td></tr><tr><td style="font-weight:bold;vertical-align:top;">wsgi.input</td><td style="vertical-align:top;">:</td><td><div>&lt;socket._fileobject object at 0x7fbba4571750&gt;</div></td></tr><tr><td style="font-weight:bold;vertical-align:top;">wsgi.multiprocess</td><td style="vertical-align:top;">:</td><td><div>False</div></td></tr><tr><td style="font-weight:bold;vertical-align:top;">wsgi.multithread</td><td style="vertical-align:top;">:</td><td><div>True</div></td></tr><tr><td style="font-weight:bold;vertical-align:top;">wsgi.run_once</td><td style="vertical-align:top;">:</td><td><div>False</div></td></tr><tr><td style="font-weight:bold;vertical-align:top;">wsgi.url_scheme</td><td style="vertical-align:top;">:</td><td><div>http</div></td></tr><tr><td style="font-weight:bold;vertical-align:top;">wsgi.version</td><td style="vertical-align:top;">:</td><td><div><table><tr><td><div>1</div></td></tr><tr><td><div>0</div></td></tr></table></div></td></tr><tr><td style="font-weight:bold;vertical-align:top;">wsgi_errors</td><td style="vertical-align:top;">:</td><td><div>&lt;open file &#x27;&lt;stderr&gt;&#x27;, mode &#x27;w&#x27; at 0x7fbbd5a501e0&gt;</div></td></tr><tr><td style="font-weight:bold;vertical-align:top;">wsgi_file_wrapper</td><td style="vertical-align:top;">:</td><td><div>&lt;class wsgiref.util.FileWrapper at 0x7fbbd1a64258&gt;</div></td></tr><tr><td style="font-weight:bold;vertical-align:top;">wsgi_input</td><td style="vertical-align:top;">:</td><td><div>&lt;socket._fileobject object at 0x7fbba4571750&gt;</div></td></tr><tr><td style="font-weight:bold;vertical-align:top;">wsgi_multiprocess</td><td style="vertical-align:top;">:</td><td><div>False</div></td></tr><tr><td style="font-weight:bold;vertical-align:top;">wsgi_multithread</td><td style="vertical-align:top;">:</td><td><div>True</div></td></tr><tr><td style="font-weight:bold;vertical-align:top;">wsgi_run_once</td><td style="vertical-align:top;">:</td><td><div>False</div></td></tr><tr><td style="font-weight:bold;vertical-align:top;">wsgi_url_scheme</td><td style="vertical-align:top;">:</td><td><div>http</div></td></tr><tr><td style="font-weight:bold;vertical-align:top;">wsgi_version</td><td style="vertical-align:top;">:</td><td><div><table><tr><td><div>1</div></td></tr><tr><td><div>0</div></td></tr></table></div></td></tr></table></div></td></tr><tr><td style="font-weight:bold;vertical-align:top;">extension</td><td style="vertical-align:top;">:</td><td><div>html</div></td></tr><tr><td style="font-weight:bold;vertical-align:top;">folder</td><td style="vertical-align:top;">:</td><td><div>/home/dunga/web2py/applications/safaritext/</div></td></tr><tr><td style="font-weight:bold;vertical-align:top;">function</td><td style="vertical-align:top;">:</td><td><div>index</div></td></tr><tr><td style="font-weight:bold;vertical-align:top;">global_settings</td><td style="vertical-align:top;">:</td><td><div><table><tr><td style="font-weight:bold;vertical-align:top;">app_folders</td><td style="vertical-align:top;">:</td><td><div>set([&#x27;/home/dunga/web2py/applications/safaritext/&#x27;, &#x27;/home/dunga/web2py/applications/admin/&#x27;])</div></td></tr><tr><td style="font-weight:bold;vertical-align:top;">applications_parent</td><td style="vertical-align:top;">:</td><td><div>/home/dunga/web2py</div></td></tr><tr><td style="font-weight:bold;vertical-align:top;">cmd_args</td><td style="vertical-align:top;">:</td><td><div><table></table></div></td></tr><tr><td style="font-weight:bold;vertical-align:top;">cmd_options</td><td style="vertical-align:top;">:</td><td><div>&lt;Values at 0x7fbbd1a31200: {&#x27;verbose&#x27;: False, &#x27;ip&#x27;: &#x27;127.0.0.1&#x27;, &#x27;debuglevel&#x27;: 30, &#x27;with_scheduler&#x27;: False, &#x27;shutdown_timeout&#x27;: 5, &#x27;taskbar&#x27;: False, &#x27;with_coverage&#x27;: False, &#x27;pid_filename&#x27;: &#x27;httpserver.pid&#x27;, &#x27;maxthreads&#x27;: None, &#x27;softcron&#x27;: False, &#x27;server_name&#x27;: &#x27;dunga-Satellite-Pro-U400&#x27;, &#x27;bpython&#x27;: False, &#x27;nogui&#x27;: False, &#x27;port&#x27;: 8000, &#x27;print_errors&#x27;: False, &#x27;extcron&#x27;: False, &#x27;runcron&#x27;: False, &#x27;run_system_tests&#x27;: False, &#x27;test&#x27;: None, &#x27;folder&#x27;: &#x27;/home/dunga/web2py&#x27;, &#x27;config&#x27;: &#x27;&#x27;, &#x27;minthreads&#x27;: None, &#x27;shell&#x27;: None, &#x27;run&#x27;: &#x27;&#x27;, &#x27;log_filename&#x27;: &#x27;httpserver.log&#x27;, &#x27;profiler_dir&#x27;: None, &#x27;args&#x27;: [&#x27;&#x27;], &#x27;socket_timeout&#x27;: 5, &#x27;ssl_ca_certificate&#x27;: None, &#x27;scheduler&#x27;: None, &#x27;interfaces&#x27;: None, &#x27;ssl_private_key&#x27;: &#x27;&#x27;, &#x27;gae&#x27;: None, &#x27;password&#x27;: &#x27;******&#x27;, &#x27;request_queue_size&#x27;: 5, &#x27;ssl_certificate&#x27;: &#x27;&#x27;, &#x27;cronjob&#x27;: False, &#x27;numthreads&#x27;: None, &#x27;quiet&#x27;: False, &#x27;import_models&#x27;: False, &#x27;timeout&#x27;: 10, &#x27;plain&#x27;: False, &#x27;nobanner&#x27;: False}&gt;</div></td></tr><tr><td style="font-weight:bold;vertical-align:top;">db_sessions</td><td style="vertical-align:top;">:</td><td><div>set([])</div></td></tr><tr><td style="font-weight:bold;vertical-align:top;">debugging</td><td style="vertical-align:top;">:</td><td><div>True</div></td></tr><tr><td style="font-weight:bold;vertical-align:top;">gluon_parent</td><td style="vertical-align:top;">:</td><td><div>/home/dunga/web2py</div></td></tr><tr><td style="font-weight:bold;vertical-align:top;">is_jython</td><td style="vertical-align:top;">:</td><td><div>False</div></td></tr><tr><td style="font-weight:bold;vertical-align:top;">is_py2</td><td style="vertical-align:top;">:</td><td><div>True</div></td></tr><tr><td style="font-weight:bold;vertical-align:top;">is_pypy</td><td style="vertical-align:top;">:</td><td><div>False</div></td></tr><tr><td style="font-weight:bold;vertical-align:top;">is_source</td><td style="vertical-align:top;">:</td><td><div>True</div></td></tr><tr><td style="font-weight:bold;vertical-align:top;">local_hosts</td><td style="vertical-align:top;">:</td><td><div><table><tr><td><div>::1</div></td></tr><tr><td><div>127.0.1.1</div></td></tr><tr><td><div>::ffff:127.0.0.1</div></td></tr><tr><td><div>127.0.0.1</div></td></tr><tr><td><div>dunga-Satellite-Pro-U400</div></td></tr></table></div></td></tr><tr><td style="font-weight:bold;vertical-align:top;">web2py_version</td><td style="vertical-align:top;">:</td><td><div>2.15.4-stable+timestamp.2017.09.02.04.02.22</div></td></tr></table></div></td></tr><tr><td style="font-weight:bold;vertical-align:top;">is_https</td><td style="vertical-align:top;">:</td><td><div>False</div></td></tr><tr><td style="font-weight:bold;vertical-align:top;">is_local</td><td style="vertical-align:top;">:</td><td><div>True</div></td></tr><tr><td style="font-weight:bold;vertical-align:top;">is_restful</td><td style="vertical-align:top;">:</td><td><div>False</div></td></tr><tr><td style="font-weight:bold;vertical-align:top;">is_scheduler</td><td style="vertical-align:top;">:</td><td><div>False</div></td></tr><tr><td style="font-weight:bold;vertical-align:top;">is_shell</td><td style="vertical-align:top;">:</td><td><div>False</div></td></tr><tr><td style="font-weight:bold;vertical-align:top;">now</td><td style="vertical-align:top;">:</td><td><div>datetime.datetime(2017, 10, 2, 21, 56, 10, 842220)</div></td></tr><tr><td style="font-weight:bold;vertical-align:top;">url</td><td style="vertical-align:top;">:</td><td><div>/</div></td></tr><tr><td style="font-weight:bold;vertical-align:top;">utcnow</td><td style="vertical-align:top;">:</td><td><div>datetime.datetime(2017, 10, 2, 18, 56, 10, 842269)</div></td></tr><tr><td style="font-weight:bold;vertical-align:top;">wsgi</td><td style="vertical-align:top;">:</td><td><div>&lt;gluon.main.LazyWSGI object at 0x7fbba50075d0&gt;</div></td></tr></table></div>'
tRp60
sS'frames'
p61
(lp62
(dp63
S'file'
p64
S'/home/dunga/web2py/gluon/restricted.py'
p65
sS'dump'
p66
(dp67
S'environment'
p68
S"{'A': <class 'gluon.html.A'>, 'ANY_OF': <class 'gluon.validators.ANY_OF'>, 'ASSIGNJS': <function ASSIGNJS>, 'Auth': <class 'gluon.tools.Auth'>, 'B': <class 'gluon.html.B'>, 'BEAUTIFY': <class 'gluon.html.BEAUTIFY'>, 'BODY': <class 'gluon.html.BODY'>, 'BR': <class 'gluon.html.BR'>, 'BUTTON': <class 'gluon.html.BUTTON'>, 'CAT': <class 'gluon.html.CAT'>, ...}"
p69
sS'ccode'
p70
S'<code object <module> at 0x7fbbd050a1b0, file "/...py/applications/safaritext/models/db.py", line 3>'
p71
ssS'lnum'
p72
I219
sS'lines'
p73
(dp74
I214
S'    if environment is None:'
p75
sI215
S'        environment = {}'
p76
sI216
S"    environment['__file__'] = layer"
p77
sI217
S"    environment['__name__'] = '__restricted__'"
p78
sI218
S'    try:'
p79
sI219
S'        exec(ccode, environment)'
p80
sI220
S'    except HTTP:'
p81
sI221
S'        raise'
p82
sI222
S'    except RestrictedError:'
p83
sI223
S'        # do not encapsulate (obfuscate) the original RestrictedError'
p84
ssS'call'
p85
S'(ccode=<code object <module> at 0x7fbbd050a1b0, file "/...py/applications/safaritext/models/db.py", line 3>, environment={\'A\': <class \'gluon.html.A\'>, \'ANY_OF\': <class \'gluon.validators.ANY_OF\'>, \'ASSIGNJS\': <function ASSIGNJS>, \'Auth\': <class \'gluon.tools.Auth\'>, \'B\': <class \'gluon.html.B\'>, \'BEAUTIFY\': <class \'gluon.html.BEAUTIFY\'>, \'BODY\': <class \'gluon.html.BODY\'>, \'BR\': <class \'gluon.html.BR\'>, \'BUTTON\': <class \'gluon.html.BUTTON\'>, \'CAT\': <class \'gluon.html.CAT\'>, ...}, layer=\'/home/dunga/web2py/applications/safaritext/models/db.py\', scode=<code object <module> at 0x7fbbd050a1b0, file "/...py/applications/safaritext/models/db.py", line 3>)'
p86
sS'func'
p87
S'restricted'
p88
sa(dp89
g64
S'/home/dunga/web2py/applications/safaritext/models/db.py'
p90
sg66
(dp91
S'category'
p92
S'undefined'
p93
sS'db'
p94
S'<DAL uri="sqlite://storage.sqlite">'
p95
sS').select'
p96
g93
sS'db.category'
p97
S'<Table category (id, name)>'
p98
ssg72
I104
sg73
(dp99
I99
S''
sI100
S''
sI101
S''
sI102
S''
sI103
S'##########################################################################################################################################'
p100
sI104
S'category = db(db.category).select(category.id)'
p101
sI105
S'#-----------------------------------------------------------------------------------------------------------------------------------------'
p102
sI106
S'"""'
p103
sI107
S'country = db(db.country).select(country.id)'
p104
sI108
S'"""'
p105
ssg85
S'()'
p106
sg87
S'<module>'
p107
sasS'pyver'
p108
S'Python 2.7.12: /usr/bin/python (prefix: /usr)'
p109
sS'session'
p110
g59
(S's\x13\n\x00\x00<div><table><tr><td style="font-weight:bold;vertical-align:top;">auth</td><td style="vertical-align:top;">:</td><td><div><table><tr><td style="font-weight:bold;vertical-align:top;">expiration</td><td style="vertical-align:top;">:</td><td><div>2592000</div></td></tr><tr><td style="font-weight:bold;vertical-align:top;">hmac_key</td><td style="vertical-align:top;">:</td><td><div>a612f6c9-3149-46e2-8646-446bf59df7d5</div></td></tr><tr><td style="font-weight:bold;vertical-align:top;">last_visit</td><td style="vertical-align:top;">:</td><td><div>datetime.datetime(2017, 9, 27, 19, 42, 36, 251208)</div></td></tr><tr><td style="font-weight:bold;vertical-align:top;">remember_me</td><td style="vertical-align:top;">:</td><td><div>True</div></td></tr><tr><td style="font-weight:bold;vertical-align:top;">user</td><td style="vertical-align:top;">:</td><td><div><table><tr><td style="font-weight:bold;vertical-align:top;">email</td><td style="vertical-align:top;">:</td><td><div>michaeldunga1@gmail.com</div></td></tr><tr><td style="font-weight:bold;vertical-align:top;">first_name</td><td style="vertical-align:top;">:</td><td><div>Michael</div></td></tr><tr><td style="font-weight:bold;vertical-align:top;">id</td><td style="vertical-align:top;">:</td><td><div>1L</div></td></tr><tr><td style="font-weight:bold;vertical-align:top;">last_name</td><td style="vertical-align:top;">:</td><td><div>Dunga</div></td></tr><tr><td style="font-weight:bold;vertical-align:top;">registration_id</td><td style="vertical-align:top;">:</td><td><div></div></td></tr><tr><td style="font-weight:bold;vertical-align:top;">registration_key</td><td style="vertical-align:top;">:</td><td><div></div></td></tr><tr><td style="font-weight:bold;vertical-align:top;">reset_password_key</td><td style="vertical-align:top;">:</td><td><div></div></td></tr></table></div></td></tr><tr><td style="font-weight:bold;vertical-align:top;">user_groups</td><td style="vertical-align:top;">:</td><td><div><table><tr><td style="font-weight:bold;vertical-align:top;">1</td><td style="vertical-align:top;">:</td><td><div>user_1</div></td></tr></table></div></td></tr></table></div></td></tr><tr><td style="font-weight:bold;vertical-align:top;">flash</td><td style="vertical-align:top;">:</td><td><div>None</div></td></tr><tr><td style="font-weight:bold;vertical-align:top;">last_orderby</td><td style="vertical-align:top;">:</td><td><div>None</div></td></tr><tr><td style="font-weight:bold;vertical-align:top;">last_query</td><td style="vertical-align:top;">:</td><td><div>db.auth_group.id&gt;0</div></td></tr></table></div>'
tRp111
sS'etype'
p112
S"<type 'exceptions.NameError'>"
p113
sS'date'
p114
S'Mon Oct  2 21:56:11 2017'
p115
sS'response'
p116
g59
(S'sr\x17\x00\x00<div><table><tr><td style="font-weight:bold;vertical-align:top;">body</td><td style="vertical-align:top;">:</td><td><div>&lt;cStringIO.StringO object at 0x7fbba4543e30&gt;</div></td></tr><tr><td style="font-weight:bold;vertical-align:top;">cookies</td><td style="vertical-align:top;">:</td><td><div><table><tr><td style="font-weight:bold;vertical-align:top;">session_id_safaritext</td><td style="vertical-align:top;">:</td><td><div>127.0.0.1-781b428f-5383-4b8a-ae3e-c4938ae7fc2a<table><tr><td style="font-weight:bold;vertical-align:top;">comment</td><td style="vertical-align:top;">:</td><td><div></div></td></tr><tr><td style="font-weight:bold;vertical-align:top;">domain</td><td style="vertical-align:top;">:</td><td><div></div></td></tr><tr><td style="font-weight:bold;vertical-align:top;">expires</td><td style="vertical-align:top;">:</td><td><div></div></td></tr><tr><td style="font-weight:bold;vertical-align:top;">httponly</td><td style="vertical-align:top;">:</td><td><div></div></td></tr><tr><td style="font-weight:bold;vertical-align:top;">max-age</td><td style="vertical-align:top;">:</td><td><div></div></td></tr><tr><td style="font-weight:bold;vertical-align:top;">path</td><td style="vertical-align:top;">:</td><td><div>/</div></td></tr><tr><td style="font-weight:bold;vertical-align:top;">secure</td><td style="vertical-align:top;">:</td><td><div></div></td></tr><tr><td style="font-weight:bold;vertical-align:top;">version</td><td style="vertical-align:top;">:</td><td><div></div></td></tr></table></div></td></tr></table></div></td></tr><tr><td style="font-weight:bold;vertical-align:top;">delimiters</td><td style="vertical-align:top;">:</td><td><div><table><tr><td><div>{{</div></td></tr><tr><td><div>}}</div></td></tr></table></div></td></tr><tr><td style="font-weight:bold;vertical-align:top;">files</td><td style="vertical-align:top;">:</td><td><div><table></table></div></td></tr><tr><td style="font-weight:bold;vertical-align:top;">flash</td><td style="vertical-align:top;">:</td><td><div></div></td></tr><tr><td style="font-weight:bold;vertical-align:top;">form_label_separator</td><td style="vertical-align:top;">:</td><td><div>: </div></td></tr><tr><td style="font-weight:bold;vertical-align:top;">formstyle</td><td style="vertical-align:top;">:</td><td><div>table3cols</div></td></tr><tr><td style="font-weight:bold;vertical-align:top;">generic_patterns</td><td style="vertical-align:top;">:</td><td><div><table><tr><td><div>*</div></td></tr></table></div></td></tr><tr><td style="font-weight:bold;vertical-align:top;">headers</td><td style="vertical-align:top;">:</td><td><div><table><tr><td style="font-weight:bold;vertical-align:top;">X-Powered-By</td><td style="vertical-align:top;">:</td><td><div>web2py</div></td></tr></table></div></td></tr><tr><td style="font-weight:bold;vertical-align:top;">menu</td><td style="vertical-align:top;">:</td><td><div><table></table></div></td></tr><tr><td style="font-weight:bold;vertical-align:top;">meta</td><td style="vertical-align:top;">:</td><td><div><table></table></div></td></tr><tr><td style="font-weight:bold;vertical-align:top;">models_to_run</td><td style="vertical-align:top;">:</td><td><div><table><tr><td><div>^\\w+\\.py$</div></td></tr><tr><td><div>^default/\\w+\\.py$</div></td></tr><tr><td><div>^default/index/\\w+\\.py$</div></td></tr></table></div></td></tr><tr><td style="font-weight:bold;vertical-align:top;">postprocessing</td><td style="vertical-align:top;">:</td><td><div><table></table></div></td></tr><tr><td style="font-weight:bold;vertical-align:top;">session_client</td><td style="vertical-align:top;">:</td><td><div>127.0.0.1</div></td></tr><tr><td style="font-weight:bold;vertical-align:top;">session_cookie_compression_level</td><td style="vertical-align:top;">:</td><td><div>None</div></td></tr><tr><td style="font-weight:bold;vertical-align:top;">session_cookie_expires</td><td style="vertical-align:top;">:</td><td><div>2592000</div></td></tr><tr><td style="font-weight:bold;vertical-align:top;">session_data_name</td><td style="vertical-align:top;">:</td><td><div>session_data_safaritext</div></td></tr><tr><td style="font-weight:bold;vertical-align:top;">session_file</td><td style="vertical-align:top;">:</td><td><div>&lt;open file &#x27;/home/dunga/web2py/applications/safaritext/sessions/1a5/0c4/127.0.0.1-781b428f-5383-4b8a-ae3e-c4938ae7fc2a&#x27;, mode &#x27;rb+&#x27; at 0x7fbba42bed20&gt;</div></td></tr><tr><td style="font-weight:bold;vertical-align:top;">session_filename</td><td style="vertical-align:top;">:</td><td><div>/home/dunga/web2py/applications/safaritext/sessions/127.0.0.1-781b428f-5383-4b8a-ae3e-c4938ae7fc2a</div></td></tr><tr><td style="font-weight:bold;vertical-align:top;">session_hash</td><td style="vertical-align:top;">:</td><td><div>ba1c1eb90cfb6de6d47a857d7f615e68</div></td></tr><tr><td style="font-weight:bold;vertical-align:top;">session_id</td><td style="vertical-align:top;">:</td><td><div>127.0.0.1-781b428f-5383-4b8a-ae3e-c4938ae7fc2a</div></td></tr><tr><td style="font-weight:bold;vertical-align:top;">session_id_name</td><td style="vertical-align:top;">:</td><td><div>session_id_safaritext</div></td></tr><tr><td style="font-weight:bold;vertical-align:top;">session_locked</td><td style="vertical-align:top;">:</td><td><div>True</div></td></tr><tr><td style="font-weight:bold;vertical-align:top;">session_masterapp</td><td style="vertical-align:top;">:</td><td><div>safaritext</div></td></tr><tr><td style="font-weight:bold;vertical-align:top;">session_new</td><td style="vertical-align:top;">:</td><td><div>False</div></td></tr><tr><td style="font-weight:bold;vertical-align:top;">session_storage_type</td><td style="vertical-align:top;">:</td><td><div>file</div></td></tr><tr><td style="font-weight:bold;vertical-align:top;">status</td><td style="vertical-align:top;">:</td><td><div>200</div></td></tr><tr><td style="font-weight:bold;vertical-align:top;">view</td><td style="vertical-align:top;">:</td><td><div>default/index.html</div></td></tr></table></div>'
tRp117
sS'locals'
p118
(dp119
S'Service'
p120
S"<class 'gluon.tools.Service'>"
p121
sS'PY2'
p122
S'True'
p123
sS'OBJECT'
p124
S"<class 'gluon.html.OBJECT'>"
p125
sS'SQLDB'
p126
S"<class 'pydal.base.DAL'>"
p127
sg110
S"<Storage {'_formkey[auth_group/create]': ['6019b...y/1]': ['0f4ec66d-c7b3-41ae-aa93-56614bf57ac5']}>"
p128
sS'LINK'
p129
S"<class 'gluon.html.LINK'>"
p130
sS'BR'
p131
S"<class 'gluon.html.BR'>"
p132
sS'local_import'
p133
S'<function <lambda>>'
p134
sS'OPTGROUP'
p135
S"<class 'gluon.html.OPTGROUP'>"
p136
sS'LI'
p137
S"<class 'gluon.html.LI'>"
p138
sS'PRE'
p139
S"<class 'gluon.html.PRE'>"
p140
sS'IS_INT_IN_RANGE'
p141
S"<class 'gluon.validators.IS_INT_IN_RANGE'>"
p142
sS'to_bytes'
p143
S'<function to_bytes>'
p144
sS'IS_LOWER'
p145
S"<class 'gluon.validators.IS_LOWER'>"
p146
sS'IS_STRONG'
p147
S"<class 'gluon.validators.IS_STRONG'>"
p148
sS'Recaptcha'
p149
S"<class 'gluon.tools.Recaptcha'>"
p150
sS'cache'
p151
S'<gluon.cache.Cache object>'
p152
sS'IS_IN_DB'
p153
S"<class 'gluon.validators.IS_IN_DB'>"
p154
sS'languages'
p155
S'<Rows (3)>'
p156
sS'TAG'
p157
S'<gluon.html.__TAG__ object>'
p158
sS'SQLField'
p159
S"<class 'pydal.objects.Field'>"
p160
sS'mail'
p161
S'<gluon.tools.Mail object>'
p162
sS'BODY'
p163
S"<class 'gluon.html.BODY'>"
p164
sS'IS_DATE_IN_RANGE'
p165
S"<class 'gluon.validators.IS_DATE_IN_RANGE'>"
p166
sS'TH'
p167
S"<class 'gluon.html.TH'>"
p168
sS'URL'
p169
S'<function URL>'
p170
sS'__file__'
p171
S"'/home/dunga/web2py/applications/safaritext/models/db.py'"
p172
sS'db'
p173
S'<DAL uri="sqlite://storage.sqlite">'
p174
sS'auth'
p175
S'<gluon.tools.Auth object>'
p176
sS'P'
S"<class 'gluon.html.P'>"
p177
sS'TFOOT'
p178
S"<class 'gluon.html.TFOOT'>"
p179
sS'iteritems'
p180
S'<function <lambda>>'
p181
sS'XHTML'
p182
S"<class 'gluon.html.XHTML'>"
p183
sS'categories'
p184
S'<Rows (10)>'
p185
sS'ON'
p186
g123
sS'OL'
p187
S"<class 'gluon.html.OL'>"
p188
sS'TEXTAREA'
p189
S"<class 'gluon.html.TEXTAREA'>"
p190
sS'settings'
p191
S"<Storage {'layout_theme': 'Default', 'subtitle':...l_server': 'localhost', 'login_method': 'local'}>"
p192
sS'MENU'
p193
S"<class 'gluon.html.MENU'>"
p194
sS'reverse_geocode'
p195
S'<function reverse_geocode>'
p196
sS'LOAD'
p197
S'<function LOAD>'
p198
sS'CODE'
p199
S"<class 'gluon.html.CODE'>"
p200
sS'HTTP'
p201
S"<class 'gluon.http.HTTP'>"
p202
sS'HR'
p203
S"<class 'gluon.html.HR'>"
p204
sS'IS_DATETIME'
p205
S"<class 'gluon.validators.IS_DATETIME'>"
p206
sS'Storage'
p207
S"<class 'gluon.storage.Storage'>"
p208
sS'IS_FLOAT_IN_RANGE'
p209
S"<class 'gluon.validators.IS_FLOAT_IN_RANGE'>"
p210
sS'LABEL'
p211
S"<class 'gluon.html.LABEL'>"
p212
sS'CLEANUP'
p213
S"<class 'gluon.validators.CLEANUP'>"
p214
sS'plugins'
p215
S'<gluon.tools.PluginManager object>'
p216
sS'SELECT'
p217
S"<class 'gluon.html.SELECT'>"
p218
sS'CENTER'
p219
S"<class 'gluon.html.CENTER'>"
p220
sS'prettydate'
p221
S'<function prettydate>'
p222
sS'Crud'
p223
S"<class 'gluon.tools.Crud'>"
p224
sS'Auth'
p225
S"<class 'gluon.tools.Auth'>"
p226
sS'__builtins__'
p227
S"{'ArithmeticError': <type 'exceptions.ArithmeticError'>, 'AssertionError': <type 'exceptions.AssertionError'>, 'AttributeError': <type 'exceptions.AttributeError'>, 'BaseException': <type 'exceptions.BaseException'>, 'BufferError': <type 'exceptions.BufferError'>, 'BytesWarning': <type 'exceptions.BytesWarning'>, 'DeprecationWarning': <type 'exceptions.DeprecationWarning'>, 'EOFError': <type 'exceptions.EOFError'>, 'Ellipsis': Ellipsis, 'EnvironmentError': <type 'exceptions.EnvironmentError'>, ...}"
p228
sS'HTML'
p229
S"<class 'gluon.html.HTML'>"
p230
sS'SQLFORM'
p231
S"<class 'gluon.sqlhtml.SQLFORM'>"
p232
sS'EM'
p233
S"<class 'gluon.html.EM'>"
p234
sS'redirect'
p235
S'<function redirect>'
p236
sS'FIELDSET'
p237
S"<class 'gluon.html.FIELDSET'>"
p238
sS'IS_EQUAL_TO'
p239
S"<class 'gluon.validators.IS_EQUAL_TO'>"
p240
sS'HEAD'
p241
S"<class 'gluon.html.HEAD'>"
p242
sS'embed64'
p243
S'<function embed64>'
p244
sS'IS_LIST_OF'
p245
S"<class 'gluon.validators.IS_LIST_OF'>"
p246
sS'__name__'
p247
S"'__restricted__'"
p248
sS'EMBED'
p249
S"<class 'gluon.html.EMBED'>"
p250
sS'FORM'
p251
S"<class 'gluon.html.FORM'>"
p252
sS'H2'
p253
S"<class 'gluon.html.H2'>"
p254
sS'H3'
p255
S"<class 'gluon.html.H3'>"
p256
sS'BUTTON'
p257
S"<class 'gluon.html.BUTTON'>"
p258
sS'H1'
p259
S"<class 'gluon.html.H1'>"
p260
sS'H6'
p261
S"<class 'gluon.html.H6'>"
p262
sS'H4'
p263
S"<class 'gluon.html.H4'>"
p264
sS'H5'
p265
S"<class 'gluon.html.H5'>"
p266
sS'UL'
p267
S"<class 'gluon.html.UL'>"
p268
sS'IS_UPPER'
p269
S"<class 'gluon.validators.IS_UPPER'>"
p270
sS'xmlescape'
p271
S'<function xmlescape>'
p272
sS'IS_TIME'
p273
S"<class 'gluon.validators.IS_TIME'>"
p274
sS'OPTION'
p275
S"<class 'gluon.html.OPTION'>"
p276
sS'TITLE'
p277
S"<class 'gluon.html.TITLE'>"
p278
sS'CRYPT'
p279
S"<class 'gluon.validators.CRYPT'>"
p280
sS'IS_EMPTY_OR'
p281
S"<class 'gluon.validators.IS_EMPTY_OR'>"
p282
sS'MARKMIN'
p283
S"<class 'gluon.html.MARKMIN'>"
p284
sS'Recaptcha2'
p285
S"<class 'gluon.tools.Recaptcha2'>"
p286
sS'INPUT'
p287
S"<class 'gluon.html.INPUT'>"
p288
sS'STRONG'
p289
S"<class 'gluon.html.STRONG'>"
p290
sS'COL'
p291
S"<class 'gluon.html.COL'>"
p292
sS'IS_EMAIL'
p293
S"<class 'gluon.validators.IS_EMAIL'>"
p294
sS'service'
p295
S'<gluon.tools.Service object>'
p296
sS'SCRIPT'
p297
S"<class 'gluon.html.SCRIPT'>"
p298
sS'geocode'
p299
S'<function geocode>'
p300
sS'TABLE'
p301
S"<class 'gluon.html.TABLE'>"
p302
sS'IS_IPV4'
p303
S"<class 'gluon.validators.IS_IPV4'>"
p304
sS'IS_LENGTH'
p305
S"<class 'gluon.validators.IS_LENGTH'>"
p306
sS'IS_IPV6'
p307
S"<class 'gluon.validators.IS_IPV6'>"
p308
sS'XML'
p309
S"<class 'gluon.html.XML'>"
p310
sS'ANY_OF'
p311
S"<class 'gluon.validators.ANY_OF'>"
p312
sS'B'
S"<class 'gluon.html.B'>"
p313
sS'IMG'
p314
S"<class 'gluon.html.IMG'>"
p315
sS'SQLTABLE'
p316
S"<class 'gluon.sqlhtml.SQLTABLE'>"
p317
sS'reduce'
p318
S'<built-in function reduce>'
p319
sS'IS_MATCH'
p320
S"<class 'gluon.validators.IS_MATCH'>"
p321
sS'IS_ALPHANUMERIC'
p322
S"<class 'gluon.validators.IS_ALPHANUMERIC'>"
p323
sS'SPAN'
p324
S"<class 'gluon.html.SPAN'>"
p325
sS'IS_JSON'
p326
S"<class 'gluon.validators.IS_JSON'>"
p327
sS'IS_IPADDRESS'
p328
S"<class 'gluon.validators.IS_IPADDRESS'>"
p329
sS'IS_SLUG'
p330
S"<class 'gluon.validators.IS_SLUG'>"
p331
sS'BEAUTIFY'
p332
S"<class 'gluon.html.BEAUTIFY'>"
p333
sS'META'
p334
S"<class 'gluon.html.META'>"
p335
sS'fetch'
p336
S'<function fetch>'
p337
sS'IS_DATE'
p338
S"<class 'gluon.validators.IS_DATE'>"
p339
sS'CKEditor'
p340
S"<class 'applications.safaritext.modules.plugin_ckeditor.CKEditor'>"
p341
sS'IS_NOT_EMPTY'
p342
S"<class 'gluon.validators.IS_NOT_EMPTY'>"
p343
sS'xrange'
p344
S"<type 'xrange'>"
p345
sS'TBODY'
p346
S"<class 'gluon.html.TBODY'>"
p347
sS'CAT'
p348
S"<class 'gluon.html.CAT'>"
p349
sS'Field'
p350
S"<class 'pydal.objects.Field'>"
p351
sS'IS_LIST_OF_EMAILS'
p352
S"<class 'gluon.validators.IS_LIST_OF_EMAILS'>"
p353
sS'Mail'
p354
S"<class 'gluon.tools.Mail'>"
p355
sS'DIV'
p356
S"<class 'gluon.html.DIV'>"
p357
sS'LEGEND'
p358
S"<class 'gluon.html.LEGEND'>"
p359
sS'to_native'
p360
S'<function to_native>'
p361
sS'COLGROUP'
p362
S"<class 'gluon.html.COLGROUP'>"
p363
sS'DAL'
p364
S"<class 'pydal.base.DAL'>"
p365
sS'ASSIGNJS'
p366
S'<function ASSIGNJS>'
p367
sS'TR'
p368
S"<class 'gluon.html.TR'>"
p369
sS'__package__'
p370
S'None'
p371
sS'IFRAME'
p372
S"<class 'gluon.html.IFRAME'>"
p373
sS'TD'
p374
S"<class 'gluon.html.TD'>"
p375
sS'PluginManager'
p376
S"<class 'gluon.tools.PluginManager'>"
p377
sS'IS_URL'
p378
S"<class 'gluon.validators.IS_URL'>"
p379
sS'A'
S"<class 'gluon.html.A'>"
p380
sS'STYLE'
p381
S"<class 'gluon.html.STYLE'>"
p382
sS'IS_DATETIME_IN_RANGE'
p383
S"<class 'gluon.validators.IS_DATETIME_IN_RANGE'>"
p384
sS'IS_IMAGE'
p385
S"<class 'gluon.validators.IS_IMAGE'>"
p386
sS'I'
S"<class 'gluon.html.I'>"
p387
sS'crud'
p388
S'<gluon.tools.Crud object>'
p389
sS'IS_NOT_IN_DB'
p390
S"<class 'gluon.validators.IS_NOT_IN_DB'>"
p391
sg116
S"<Storage {'body': <cStringIO.StringO object at 0...t 0x7fbb97949aa0>, 'view': 'default/index.html'}>"
p392
sS'THEAD'
p393
S"<class 'gluon.html.THEAD'>"
p394
sS'Wiki'
p395
S"<class 'gluon.tools.Wiki'>"
p396
sS'IS_NULL_OR'
p397
S"<class 'gluon.validators.IS_EMPTY_OR'>"
p398
sg58
S"<Storage {'_vars': None, 'function': 'index', 'c...: '/home/dunga/web2py/applications/safaritext/'}>"
p399
sS'IS_EXPR'
p400
S"<class 'gluon.validators.IS_EXPR'>"
p401
sS'IS_IN_SET'
p402
S"<class 'gluon.validators.IS_IN_SET'>"
p403
sS'IS_UPLOAD_FILENAME'
p404
S"<class 'gluon.validators.IS_UPLOAD_FILENAME'>"
p405
sS'IS_DECIMAL_IN_RANGE'
p406
S"<class 'gluon.validators.IS_DECIMAL_IN_RANGE'>"
p407
sS'TT'
p408
S"<class 'gluon.html.TT'>"
p409
sS'T'
S'<gluon.languages.translator object>'
p410
sssS'traceback'
p411
S'Traceback (most recent call last):\n  File "/home/dunga/web2py/gluon/restricted.py", line 219, in restricted\n    exec(ccode, environment)\n  File "/home/dunga/web2py/applications/safaritext/models/db.py", line 104, in <module>\n    category = db(db.category).select(category.id)\nNameError: name \'category\' is not defined\n'
p412
s.