(dp1
S'output'
p2
S"<type 'exceptions.NameError'> global name 'page' is not defined"
p3
sS'layer'
p4
S'/home/dunga/web2py/applications/safaritext/controllers/default.py'
p5
sS'code'
p6
S'<code object <module> at 0x7f56dbbf69b0, file "/home/dunga/web2py/applications/safaritext/controllers/default.py", line 1>'
p7
sS'snapshot'
p8
(dp9
sS'traceback'
p10
S'Traceback (most recent call last):\n  File "/home/dunga/web2py/gluon/restricted.py", line 219, in restricted\n    exec(ccode, environment)\n  File "/home/dunga/web2py/applications/safaritext/controllers/default.py", line 113, in <module>\n  File "/home/dunga/web2py/gluon/globals.py", line 414, in <lambda>\n    self._caller = lambda f: f()\n  File "/home/dunga/web2py/applications/safaritext/controllers/default.py", line 62, in page_by_category\n    pages = db(db.page.category==this_category).select(orderby=page.created_on)\nNameError: global name \'page\' is not defined\n'
p11
s.