(dp1
S'output'
p2
S"<type 'exceptions.NameError'> name 'f' is not defined"
p3
sS'layer'
p4
S'/home/dunga/web2py/applications/safaritext/models/menu.py'
p5
sS'code'
p6
S'<code object <module> at 0x7fddf4797530, file "/home/dunga/web2py/applications/safaritext/models/menu.py", line 12>'
p7
sS'snapshot'
p8
(dp9
S'exception'
p10
(dp11
S'__getslice__'
p12
S"<method-wrapper '__getslice__' of exceptions.NameError object>"
p13
sS'__str__'
p14
S"<method-wrapper '__str__' of exceptions.NameError object>"
p15
sS'__reduce__'
p16
S'<built-in method __reduce__ of exceptions.NameError object>'
p17
sS'__dict__'
p18
S'{}'
p19
sS'message'
p20
S'"name \'f\' is not defined"'
p21
sS'__sizeof__'
p22
S'<built-in method __sizeof__ of exceptions.NameError object>'
p23
sS'__init__'
p24
S"<method-wrapper '__init__' of exceptions.NameError object>"
p25
sS'__setattr__'
p26
S"<method-wrapper '__setattr__' of exceptions.NameError object>"
p27
sS'__reduce_ex__'
p28
S'<built-in method __reduce_ex__ of exceptions.NameError object>'
p29
sS'__new__'
p30
S'<built-in method __new__ of type object>'
p31
sS'__format__'
p32
S'<built-in method __format__ of exceptions.NameError object>'
p33
sS'__class__'
p34
S"<type 'exceptions.NameError'>"
p35
sS'__doc__'
p36
S"'Name not found globally.'"
p37
sS'__getitem__'
p38
S"<method-wrapper '__getitem__' of exceptions.NameError object>"
p39
sS'__setstate__'
p40
S'<built-in method __setstate__ of exceptions.NameError object>'
p41
sS'__getattribute__'
p42
S"<method-wrapper '__getattribute__' of exceptions.NameError object>"
p43
sS'args'
p44
S'("name \'f\' is not defined",)'
p45
sS'__subclasshook__'
p46
S'<built-in method __subclasshook__ of type object>'
p47
sS'__unicode__'
p48
S'<built-in method __unicode__ of exceptions.NameError object>'
p49
sS'__delattr__'
p50
S"<method-wrapper '__delattr__' of exceptions.NameError object>"
p51
sS'__repr__'
p52
S"<method-wrapper '__repr__' of exceptions.NameError object>"
p53
sS'__hash__'
p54
S"<method-wrapper '__hash__' of exceptions.NameError object>"
p55
ssS'evalue'
p56
S"name 'f' is not defined"
p57
sS'request'
p58
cgluon.html
XML_unpickle
p59
(S's\'Y\x00\x00<div><table><tr><td style="font-weight:bold;vertical-align:top;">ajax</td><td style="vertical-align:top;">:</td><td><div>True</div></td></tr><tr><td style="font-weight:bold;vertical-align:top;">application</td><td style="vertical-align:top;">:</td><td><div>safaritext</div></td></tr><tr><td style="font-weight:bold;vertical-align:top;">args</td><td style="vertical-align:top;">:</td><td><div><table></table></div></td></tr><tr><td style="font-weight:bold;vertical-align:top;">cid</td><td style="vertical-align:top;">:</td><td><div>c690456184461</div></td></tr><tr><td style="font-weight:bold;vertical-align:top;">client</td><td style="vertical-align:top;">:</td><td><div>127.0.0.1</div></td></tr><tr><td style="font-weight:bold;vertical-align:top;">controller</td><td style="vertical-align:top;">:</td><td><div>appadmin</div></td></tr><tr><td style="font-weight:bold;vertical-align:top;">cookies</td><td style="vertical-align:top;">:</td><td><div><table><tr><td style="font-weight:bold;vertical-align:top;">session_id_admin</td><td style="vertical-align:top;">:</td><td><div>127.0.0.1-baca4f37-0384-419b-9e10-863881986f76<table><tr><td style="font-weight:bold;vertical-align:top;">comment</td><td style="vertical-align:top;">:</td><td><div></div></td></tr><tr><td style="font-weight:bold;vertical-align:top;">domain</td><td style="vertical-align:top;">:</td><td><div></div></td></tr><tr><td style="font-weight:bold;vertical-align:top;">expires</td><td style="vertical-align:top;">:</td><td><div></div></td></tr><tr><td style="font-weight:bold;vertical-align:top;">httponly</td><td style="vertical-align:top;">:</td><td><div></div></td></tr><tr><td style="font-weight:bold;vertical-align:top;">max-age</td><td style="vertical-align:top;">:</td><td><div></div></td></tr><tr><td style="font-weight:bold;vertical-align:top;">path</td><td style="vertical-align:top;">:</td><td><div></div></td></tr><tr><td style="font-weight:bold;vertical-align:top;">secure</td><td style="vertical-align:top;">:</td><td><div></div></td></tr><tr><td style="font-weight:bold;vertical-align:top;">version</td><td style="vertical-align:top;">:</td><td><div></div></td></tr></table></div></td></tr><tr><td style="font-weight:bold;vertical-align:top;">session_id_safaritext</td><td style="vertical-align:top;">:</td><td><div>127.0.0.1-df410217-a646-4137-92d3-96a53dc5ebfc<table><tr><td style="font-weight:bold;vertical-align:top;">comment</td><td style="vertical-align:top;">:</td><td><div></div></td></tr><tr><td style="font-weight:bold;vertical-align:top;">domain</td><td style="vertical-align:top;">:</td><td><div></div></td></tr><tr><td style="font-weight:bold;vertical-align:top;">expires</td><td style="vertical-align:top;">:</td><td><div></div></td></tr><tr><td style="font-weight:bold;vertical-align:top;">httponly</td><td style="vertical-align:top;">:</td><td><div></div></td></tr><tr><td style="font-weight:bold;vertical-align:top;">max-age</td><td style="vertical-align:top;">:</td><td><div></div></td></tr><tr><td style="font-weight:bold;vertical-align:top;">path</td><td style="vertical-align:top;">:</td><td><div></div></td></tr><tr><td style="font-weight:bold;vertical-align:top;">secure</td><td style="vertical-align:top;">:</td><td><div></div></td></tr><tr><td style="font-weight:bold;vertical-align:top;">version</td><td style="vertical-align:top;">:</td><td><div></div></td></tr></table></div></td></tr></table></div></td></tr><tr><td style="font-weight:bold;vertical-align:top;">env</td><td style="vertical-align:top;">:</td><td><div><table><tr><td style="font-weight:bold;vertical-align:top;">HTTP_ACCEPT</td><td style="vertical-align:top;">:</td><td><div>*/*</div></td></tr><tr><td style="font-weight:bold;vertical-align:top;">HTTP_ACCEPT_ENCODING</td><td style="vertical-align:top;">:</td><td><div>gzip, deflate</div></td></tr><tr><td style="font-weight:bold;vertical-align:top;">HTTP_ACCEPT_LANGUAGE</td><td style="vertical-align:top;">:</td><td><div>en-US,en;q=0.5</div></td></tr><tr><td style="font-weight:bold;vertical-align:top;">HTTP_CONNECTION</td><td style="vertical-align:top;">:</td><td><div>keep-alive</div></td></tr><tr><td style="font-weight:bold;vertical-align:top;">HTTP_COOKIE</td><td style="vertical-align:top;">:</td><td><div>session_id_safaritext=127.0.0.1-df410217-a646-4137-92d3-96a53dc5ebfc; session_id_admin=127.0.0.1-baca4f37-0384-419b-9e10-863881986f76</div></td></tr><tr><td style="font-weight:bold;vertical-align:top;">HTTP_HOST</td><td style="vertical-align:top;">:</td><td><div>127.0.0.1:8000</div></td></tr><tr><td style="font-weight:bold;vertical-align:top;">HTTP_REFERER</td><td style="vertical-align:top;">:</td><td><div>http://127.0.0.1:8000/admin/edit/safaritext/controllers/default.py?id=controllers__default__py</div></td></tr><tr><td style="font-weight:bold;vertical-align:top;">HTTP_USER_AGENT</td><td style="vertical-align:top;">:</td><td><div>Mozilla/5.0 (X11; Ubuntu; Linux x86_64; rv:55.0) Gecko/20100101 Firefox/55.0</div></td></tr><tr><td style="font-weight:bold;vertical-align:top;">HTTP_WEB2PY_COMPONENT_ELEMENT</td><td style="vertical-align:top;">:</td><td><div>c690456184461</div></td></tr><tr><td style="font-weight:bold;vertical-align:top;">HTTP_WEB2PY_COMPONENT_LOCATION</td><td style="vertical-align:top;">:</td><td><div>http://127.0.0.1:8000/admin/edit/safaritext/controllers/default.py?id=controllers__default__py</div></td></tr><tr><td style="font-weight:bold;vertical-align:top;">HTTP_X_REQUESTED_WITH</td><td style="vertical-align:top;">:</td><td><div>XMLHttpRequest</div></td></tr><tr><td style="font-weight:bold;vertical-align:top;">PATH_INFO</td><td style="vertical-align:top;">:</td><td><div>/safaritext/appadmin/hooks</div></td></tr><tr><td style="font-weight:bold;vertical-align:top;">QUERY_STRING</td><td style="vertical-align:top;">:</td><td><div></div></td></tr><tr><td style="font-weight:bold;vertical-align:top;">REMOTE_ADDR</td><td style="vertical-align:top;">:</td><td><div>127.0.0.1</div></td></tr><tr><td style="font-weight:bold;vertical-align:top;">REMOTE_PORT</td><td style="vertical-align:top;">:</td><td><div>60798</div></td></tr><tr><td style="font-weight:bold;vertical-align:top;">REQUEST_METHOD</td><td style="vertical-align:top;">:</td><td><div>GET</div></td></tr><tr><td style="font-weight:bold;vertical-align:top;">SCRIPT_NAME</td><td style="vertical-align:top;">:</td><td><div></div></td></tr><tr><td style="font-weight:bold;vertical-align:top;">SERVER_NAME</td><td style="vertical-align:top;">:</td><td><div>dunga-Satellite-Pro-U400</div></td></tr><tr><td style="font-weight:bold;vertical-align:top;">SERVER_PORT</td><td style="vertical-align:top;">:</td><td><div>8000</div></td></tr><tr><td style="font-weight:bold;vertical-align:top;">SERVER_PROTOCOL</td><td style="vertical-align:top;">:</td><td><div>HTTP/1.1</div></td></tr><tr><td style="font-weight:bold;vertical-align:top;">SERVER_SOFTWARE</td><td style="vertical-align:top;">:</td><td><div>Rocket 1.2.6</div></td></tr><tr><td style="font-weight:bold;vertical-align:top;">app_folders</td><td style="vertical-align:top;">:</td><td><div>set([&#x27;/home/dunga/web2py/applications/safaritext/&#x27;, &#x27;/home/dunga/web2py/applications/admin/&#x27;])</div></td></tr><tr><td style="font-weight:bold;vertical-align:top;">applications_parent</td><td style="vertical-align:top;">:</td><td><div>/home/dunga/web2py</div></td></tr><tr><td style="font-weight:bold;vertical-align:top;">cmd_args</td><td style="vertical-align:top;">:</td><td><div><table></table></div></td></tr><tr><td style="font-weight:bold;vertical-align:top;">cmd_options</td><td style="vertical-align:top;">:</td><td><div>&lt;Values at 0x7fde0ebdc200: {&#x27;verbose&#x27;: False, &#x27;ip&#x27;: &#x27;127.0.0.1&#x27;, &#x27;debuglevel&#x27;: 30, &#x27;with_scheduler&#x27;: False, &#x27;shutdown_timeout&#x27;: 5, &#x27;taskbar&#x27;: False, &#x27;with_coverage&#x27;: False, &#x27;pid_filename&#x27;: &#x27;httpserver.pid&#x27;, &#x27;maxthreads&#x27;: None, &#x27;softcron&#x27;: False, &#x27;server_name&#x27;: &#x27;dunga-Satellite-Pro-U400&#x27;, &#x27;bpython&#x27;: False, &#x27;nogui&#x27;: False, &#x27;port&#x27;: 8000, &#x27;print_errors&#x27;: False, &#x27;extcron&#x27;: False, &#x27;runcron&#x27;: False, &#x27;run_system_tests&#x27;: False, &#x27;test&#x27;: None, &#x27;folder&#x27;: &#x27;/home/dunga/web2py&#x27;, &#x27;config&#x27;: &#x27;&#x27;, &#x27;minthreads&#x27;: None, &#x27;shell&#x27;: None, &#x27;run&#x27;: &#x27;&#x27;, &#x27;log_filename&#x27;: &#x27;httpserver.log&#x27;, &#x27;profiler_dir&#x27;: None, &#x27;args&#x27;: [&#x27;&#x27;], &#x27;socket_timeout&#x27;: 5, &#x27;ssl_ca_certificate&#x27;: None, &#x27;scheduler&#x27;: None, &#x27;interfaces&#x27;: None, &#x27;ssl_private_key&#x27;: &#x27;&#x27;, &#x27;gae&#x27;: None, &#x27;password&#x27;: &#x27;******&#x27;, &#x27;request_queue_size&#x27;: 5, &#x27;ssl_certificate&#x27;: &#x27;&#x27;, &#x27;cronjob&#x27;: False, &#x27;numthreads&#x27;: None, &#x27;quiet&#x27;: False, &#x27;import_models&#x27;: False, &#x27;timeout&#x27;: 10, &#x27;plain&#x27;: False, &#x27;nobanner&#x27;: False}&gt;</div></td></tr><tr><td style="font-weight:bold;vertical-align:top;">db_sessions</td><td style="vertical-align:top;">:</td><td><div>set([])</div></td></tr><tr><td style="font-weight:bold;vertical-align:top;">debugging</td><td style="vertical-align:top;">:</td><td><div>True</div></td></tr><tr><td style="font-weight:bold;vertical-align:top;">gluon_parent</td><td style="vertical-align:top;">:</td><td><div>/home/dunga/web2py</div></td></tr><tr><td style="font-weight:bold;vertical-align:top;">http_accept</td><td style="vertical-align:top;">:</td><td><div>*/*</div></td></tr><tr><td style="font-weight:bold;vertical-align:top;">http_accept_encoding</td><td style="vertical-align:top;">:</td><td><div>gzip, deflate</div></td></tr><tr><td style="font-weight:bold;vertical-align:top;">http_accept_language</td><td style="vertical-align:top;">:</td><td><div>en-US,en;q=0.5</div></td></tr><tr><td style="font-weight:bold;vertical-align:top;">http_connection</td><td style="vertical-align:top;">:</td><td><div>keep-alive</div></td></tr><tr><td style="font-weight:bold;vertical-align:top;">http_cookie</td><td style="vertical-align:top;">:</td><td><div>session_id_safaritext=127.0.0.1-df410217-a646-4137-92d3-96a53dc5ebfc; session_id_admin=127.0.0.1-baca4f37-0384-419b-9e10-863881986f76</div></td></tr><tr><td style="font-weight:bold;vertical-align:top;">http_host</td><td style="vertical-align:top;">:</td><td><div>127.0.0.1:8000</div></td></tr><tr><td style="font-weight:bold;vertical-align:top;">http_referer</td><td style="vertical-align:top;">:</td><td><div>http://127.0.0.1:8000/admin/edit/safaritext/controllers/default.py?id=controllers__default__py</div></td></tr><tr><td style="font-weight:bold;vertical-align:top;">http_user_agent</td><td style="vertical-align:top;">:</td><td><div>Mozilla/5.0 (X11; Ubuntu; Linux x86_64; rv:55.0) Gecko/20100101 Firefox/55.0</div></td></tr><tr><td style="font-weight:bold;vertical-align:top;">http_web2py_component_element</td><td style="vertical-align:top;">:</td><td><div>c690456184461</div></td></tr><tr><td style="font-weight:bold;vertical-align:top;">http_web2py_component_location</td><td style="vertical-align:top;">:</td><td><div>http://127.0.0.1:8000/admin/edit/safaritext/controllers/default.py?id=controllers__default__py</div></td></tr><tr><td style="font-weight:bold;vertical-align:top;">http_x_requested_with</td><td style="vertical-align:top;">:</td><td><div>XMLHttpRequest</div></td></tr><tr><td style="font-weight:bold;vertical-align:top;">is_jython</td><td style="vertical-align:top;">:</td><td><div>False</div></td></tr><tr><td style="font-weight:bold;vertical-align:top;">is_py2</td><td style="vertical-align:top;">:</td><td><div>True</div></td></tr><tr><td style="font-weight:bold;vertical-align:top;">is_pypy</td><td style="vertical-align:top;">:</td><td><div>False</div></td></tr><tr><td style="font-weight:bold;vertical-align:top;">is_source</td><td style="vertical-align:top;">:</td><td><div>True</div></td></tr><tr><td style="font-weight:bold;vertical-align:top;">local_hosts</td><td style="vertical-align:top;">:</td><td><div><table><tr><td><div>::1</div></td></tr><tr><td><div>127.0.1.1</div></td></tr><tr><td><div>::ffff:127.0.0.1</div></td></tr><tr><td><div>127.0.0.1</div></td></tr><tr><td><div>dunga-Satellite-Pro-U400</div></td></tr></table></div></td></tr><tr><td style="font-weight:bold;vertical-align:top;">path_info</td><td style="vertical-align:top;">:</td><td><div>/safaritext/appadmin/hooks</div></td></tr><tr><td style="font-weight:bold;vertical-align:top;">query_string</td><td style="vertical-align:top;">:</td><td><div></div></td></tr><tr><td style="font-weight:bold;vertical-align:top;">remote_addr</td><td style="vertical-align:top;">:</td><td><div>127.0.0.1</div></td></tr><tr><td style="font-weight:bold;vertical-align:top;">remote_port</td><td style="vertical-align:top;">:</td><td><div>60798</div></td></tr><tr><td style="font-weight:bold;vertical-align:top;">request_method</td><td style="vertical-align:top;">:</td><td><div>GET</div></td></tr><tr><td style="font-weight:bold;vertical-align:top;">request_uri</td><td style="vertical-align:top;">:</td><td><div>/safaritext/appadmin/hooks</div></td></tr><tr><td style="font-weight:bold;vertical-align:top;">script_name</td><td style="vertical-align:top;">:</td><td><div></div></td></tr><tr><td style="font-weight:bold;vertical-align:top;">server_name</td><td style="vertical-align:top;">:</td><td><div>dunga-Satellite-Pro-U400</div></td></tr><tr><td style="font-weight:bold;vertical-align:top;">server_port</td><td style="vertical-align:top;">:</td><td><div>8000</div></td></tr><tr><td style="font-weight:bold;vertical-align:top;">server_protocol</td><td style="vertical-align:top;">:</td><td><div>HTTP/1.1</div></td></tr><tr><td style="font-weight:bold;vertical-align:top;">server_software</td><td style="vertical-align:top;">:</td><td><div>Rocket 1.2.6</div></td></tr><tr><td style="font-weight:bold;vertical-align:top;">web2py_original_uri</td><td style="vertical-align:top;">:</td><td><div>/safaritext/appadmin/hooks</div></td></tr><tr><td style="font-weight:bold;vertical-align:top;">web2py_path</td><td style="vertical-align:top;">:</td><td><div>/home/dunga/web2py</div></td></tr><tr><td style="font-weight:bold;vertical-align:top;">web2py_version</td><td style="vertical-align:top;">:</td><td><div>2.15.4-stable+timestamp.2017.09.02.04.02.22</div></td></tr><tr><td style="font-weight:bold;vertical-align:top;">wsgi.errors</td><td style="vertical-align:top;">:</td><td><div>&lt;open file &#x27;&lt;stderr&gt;&#x27;, mode &#x27;w&#x27; at 0x7fde12bfb1e0&gt;</div></td></tr><tr><td style="font-weight:bold;vertical-align:top;">wsgi.file_wrapper</td><td style="vertical-align:top;">:</td><td><div>&lt;class wsgiref.util.FileWrapper at 0x7fde0ec0f258&gt;</div></td></tr><tr><td style="font-weight:bold;vertical-align:top;">wsgi.input</td><td style="vertical-align:top;">:</td><td><div>&lt;socket._fileobject object at 0x7fddd6195250&gt;</div></td></tr><tr><td style="font-weight:bold;vertical-align:top;">wsgi.multiprocess</td><td style="vertical-align:top;">:</td><td><div>False</div></td></tr><tr><td style="font-weight:bold;vertical-align:top;">wsgi.multithread</td><td style="vertical-align:top;">:</td><td><div>True</div></td></tr><tr><td style="font-weight:bold;vertical-align:top;">wsgi.run_once</td><td style="vertical-align:top;">:</td><td><div>False</div></td></tr><tr><td style="font-weight:bold;vertical-align:top;">wsgi.url_scheme</td><td style="vertical-align:top;">:</td><td><div>http</div></td></tr><tr><td style="font-weight:bold;vertical-align:top;">wsgi.version</td><td style="vertical-align:top;">:</td><td><div><table><tr><td><div>1</div></td></tr><tr><td><div>0</div></td></tr></table></div></td></tr><tr><td style="font-weight:bold;vertical-align:top;">wsgi_errors</td><td style="vertical-align:top;">:</td><td><div>&lt;open file &#x27;&lt;stderr&gt;&#x27;, mode &#x27;w&#x27; at 0x7fde12bfb1e0&gt;</div></td></tr><tr><td style="font-weight:bold;vertical-align:top;">wsgi_file_wrapper</td><td style="vertical-align:top;">:</td><td><div>&lt;class wsgiref.util.FileWrapper at 0x7fde0ec0f258&gt;</div></td></tr><tr><td style="font-weight:bold;vertical-align:top;">wsgi_input</td><td style="vertical-align:top;">:</td><td><div>&lt;socket._fileobject object at 0x7fddd6195250&gt;</div></td></tr><tr><td style="font-weight:bold;vertical-align:top;">wsgi_multiprocess</td><td style="vertical-align:top;">:</td><td><div>False</div></td></tr><tr><td style="font-weight:bold;vertical-align:top;">wsgi_multithread</td><td style="vertical-align:top;">:</td><td><div>True</div></td></tr><tr><td style="font-weight:bold;vertical-align:top;">wsgi_run_once</td><td style="vertical-align:top;">:</td><td><div>False</div></td></tr><tr><td style="font-weight:bold;vertical-align:top;">wsgi_url_scheme</td><td style="vertical-align:top;">:</td><td><div>http</div></td></tr><tr><td style="font-weight:bold;vertical-align:top;">wsgi_version</td><td style="vertical-align:top;">:</td><td><div><table><tr><td><div>1</div></td></tr><tr><td><div>0</div></td></tr></table></div></td></tr></table></div></td></tr><tr><td style="font-weight:bold;vertical-align:top;">extension</td><td style="vertical-align:top;">:</td><td><div>html</div></td></tr><tr><td style="font-weight:bold;vertical-align:top;">folder</td><td style="vertical-align:top;">:</td><td><div>/home/dunga/web2py/applications/safaritext/</div></td></tr><tr><td style="font-weight:bold;vertical-align:top;">function</td><td style="vertical-align:top;">:</td><td><div>hooks</div></td></tr><tr><td style="font-weight:bold;vertical-align:top;">global_settings</td><td style="vertical-align:top;">:</td><td><div><table><tr><td style="font-weight:bold;vertical-align:top;">app_folders</td><td style="vertical-align:top;">:</td><td><div>set([&#x27;/home/dunga/web2py/applications/safaritext/&#x27;, &#x27;/home/dunga/web2py/applications/admin/&#x27;])</div></td></tr><tr><td style="font-weight:bold;vertical-align:top;">applications_parent</td><td style="vertical-align:top;">:</td><td><div>/home/dunga/web2py</div></td></tr><tr><td style="font-weight:bold;vertical-align:top;">cmd_args</td><td style="vertical-align:top;">:</td><td><div><table></table></div></td></tr><tr><td style="font-weight:bold;vertical-align:top;">cmd_options</td><td style="vertical-align:top;">:</td><td><div>&lt;Values at 0x7fde0ebdc200: {&#x27;verbose&#x27;: False, &#x27;ip&#x27;: &#x27;127.0.0.1&#x27;, &#x27;debuglevel&#x27;: 30, &#x27;with_scheduler&#x27;: False, &#x27;shutdown_timeout&#x27;: 5, &#x27;taskbar&#x27;: False, &#x27;with_coverage&#x27;: False, &#x27;pid_filename&#x27;: &#x27;httpserver.pid&#x27;, &#x27;maxthreads&#x27;: None, &#x27;softcron&#x27;: False, &#x27;server_name&#x27;: &#x27;dunga-Satellite-Pro-U400&#x27;, &#x27;bpython&#x27;: False, &#x27;nogui&#x27;: False, &#x27;port&#x27;: 8000, &#x27;print_errors&#x27;: False, &#x27;extcron&#x27;: False, &#x27;runcron&#x27;: False, &#x27;run_system_tests&#x27;: False, &#x27;test&#x27;: None, &#x27;folder&#x27;: &#x27;/home/dunga/web2py&#x27;, &#x27;config&#x27;: &#x27;&#x27;, &#x27;minthreads&#x27;: None, &#x27;shell&#x27;: None, &#x27;run&#x27;: &#x27;&#x27;, &#x27;log_filename&#x27;: &#x27;httpserver.log&#x27;, &#x27;profiler_dir&#x27;: None, &#x27;args&#x27;: [&#x27;&#x27;], &#x27;socket_timeout&#x27;: 5, &#x27;ssl_ca_certificate&#x27;: None, &#x27;scheduler&#x27;: None, &#x27;interfaces&#x27;: None, &#x27;ssl_private_key&#x27;: &#x27;&#x27;, &#x27;gae&#x27;: None, &#x27;password&#x27;: &#x27;******&#x27;, &#x27;request_queue_size&#x27;: 5, &#x27;ssl_certificate&#x27;: &#x27;&#x27;, &#x27;cronjob&#x27;: False, &#x27;numthreads&#x27;: None, &#x27;quiet&#x27;: False, &#x27;import_models&#x27;: False, &#x27;timeout&#x27;: 10, &#x27;plain&#x27;: False, &#x27;nobanner&#x27;: False}&gt;</div></td></tr><tr><td style="font-weight:bold;vertical-align:top;">db_sessions</td><td style="vertical-align:top;">:</td><td><div>set([])</div></td></tr><tr><td style="font-weight:bold;vertical-align:top;">debugging</td><td style="vertical-align:top;">:</td><td><div>True</div></td></tr><tr><td style="font-weight:bold;vertical-align:top;">gluon_parent</td><td style="vertical-align:top;">:</td><td><div>/home/dunga/web2py</div></td></tr><tr><td style="font-weight:bold;vertical-align:top;">is_jython</td><td style="vertical-align:top;">:</td><td><div>False</div></td></tr><tr><td style="font-weight:bold;vertical-align:top;">is_py2</td><td style="vertical-align:top;">:</td><td><div>True</div></td></tr><tr><td style="font-weight:bold;vertical-align:top;">is_pypy</td><td style="vertical-align:top;">:</td><td><div>False</div></td></tr><tr><td style="font-weight:bold;vertical-align:top;">is_source</td><td style="vertical-align:top;">:</td><td><div>True</div></td></tr><tr><td style="font-weight:bold;vertical-align:top;">local_hosts</td><td style="vertical-align:top;">:</td><td><div><table><tr><td><div>::1</div></td></tr><tr><td><div>127.0.1.1</div></td></tr><tr><td><div>::ffff:127.0.0.1</div></td></tr><tr><td><div>127.0.0.1</div></td></tr><tr><td><div>dunga-Satellite-Pro-U400</div></td></tr></table></div></td></tr><tr><td style="font-weight:bold;vertical-align:top;">web2py_version</td><td style="vertical-align:top;">:</td><td><div>2.15.4-stable+timestamp.2017.09.02.04.02.22</div></td></tr></table></div></td></tr><tr><td style="font-weight:bold;vertical-align:top;">is_https</td><td style="vertical-align:top;">:</td><td><div>False</div></td></tr><tr><td style="font-weight:bold;vertical-align:top;">is_local</td><td style="vertical-align:top;">:</td><td><div>True</div></td></tr><tr><td style="font-weight:bold;vertical-align:top;">is_restful</td><td style="vertical-align:top;">:</td><td><div>False</div></td></tr><tr><td style="font-weight:bold;vertical-align:top;">is_scheduler</td><td style="vertical-align:top;">:</td><td><div>False</div></td></tr><tr><td style="font-weight:bold;vertical-align:top;">is_shell</td><td style="vertical-align:top;">:</td><td><div>False</div></td></tr><tr><td style="font-weight:bold;vertical-align:top;">now</td><td style="vertical-align:top;">:</td><td><div>datetime.datetime(2017, 10, 4, 10, 3, 53, 774822)</div></td></tr><tr><td style="font-weight:bold;vertical-align:top;">url</td><td style="vertical-align:top;">:</td><td><div>/safaritext/appadmin/hooks</div></td></tr><tr><td style="font-weight:bold;vertical-align:top;">utcnow</td><td style="vertical-align:top;">:</td><td><div>datetime.datetime(2017, 10, 4, 7, 3, 53, 774871)</div></td></tr><tr><td style="font-weight:bold;vertical-align:top;">wsgi</td><td style="vertical-align:top;">:</td><td><div>&lt;gluon.main.LazyWSGI object at 0x7fddd55f2650&gt;</div></td></tr></table></div>'
tRp60
sS'frames'
p61
(lp62
(dp63
S'file'
p64
S'/home/dunga/web2py/gluon/restricted.py'
p65
sS'dump'
p66
(dp67
S'environment'
p68
S"{'A': <class 'gluon.html.A'>, 'ANY_OF': <class 'gluon.validators.ANY_OF'>, 'ASSIGNJS': <function ASSIGNJS>, 'Auth': <class 'gluon.tools.Auth'>, 'B': <class 'gluon.html.B'>, 'BEAUTIFY': <class 'gluon.html.BEAUTIFY'>, 'BODY': <class 'gluon.html.BODY'>, 'BR': <class 'gluon.html.BR'>, 'BUTTON': <class 'gluon.html.BUTTON'>, 'CAT': <class 'gluon.html.CAT'>, ...}"
p69
sS'ccode'
p70
S'<code object <module> at 0x7fddf4797530, file "/...applications/safaritext/models/menu.py", line 12>'
p71
ssS'lnum'
p72
I219
sS'lines'
p73
(dp74
I214
S'    if environment is None:'
p75
sI215
S'        environment = {}'
p76
sI216
S"    environment['__file__'] = layer"
p77
sI217
S"    environment['__name__'] = '__restricted__'"
p78
sI218
S'    try:'
p79
sI219
S'        exec(ccode, environment)'
p80
sI220
S'    except HTTP:'
p81
sI221
S'        raise'
p82
sI222
S'    except RestrictedError:'
p83
sI223
S'        # do not encapsulate (obfuscate) the original RestrictedError'
p84
ssS'call'
p85
S'(ccode=<code object <module> at 0x7fddf4797530, file "/...applications/safaritext/models/menu.py", line 12>, environment={\'A\': <class \'gluon.html.A\'>, \'ANY_OF\': <class \'gluon.validators.ANY_OF\'>, \'ASSIGNJS\': <function ASSIGNJS>, \'Auth\': <class \'gluon.tools.Auth\'>, \'B\': <class \'gluon.html.B\'>, \'BEAUTIFY\': <class \'gluon.html.BEAUTIFY\'>, \'BODY\': <class \'gluon.html.BODY\'>, \'BR\': <class \'gluon.html.BR\'>, \'BUTTON\': <class \'gluon.html.BUTTON\'>, \'CAT\': <class \'gluon.html.CAT\'>, ...}, layer=\'/home/dunga/web2py/applications/safaritext/models/menu.py\', scode=<code object <module> at 0x7fddf4797530, file "/...applications/safaritext/models/menu.py", line 12>)'
p86
sS'func'
p87
S'restricted'
p88
sa(dp89
g64
S'/home/dunga/web2py/applications/safaritext/models/menu.py'
p90
sg66
(dp91
S'f'
S'undefined'
p92
sS'builtinFalse'
p93
S'False'
p94
sS'la'
p95
S"<Row {'id': 2L, 'name': ' Abenaki'}>"
p96
sS'URL'
p97
S'<function URL>'
p98
sS'args'
p99
g92
sS'languages'
p100
S'<Rows (12)>'
p101
ssg72
I119
sg73
(dp102
I114
S'        ]),'
p103
sI115
S"    (T('E'), False, URL('default', 'index'), ["
p104
sI116
S"            (e.name, False, URL('default', 'pages_by_language', args=e.id)) for e in e_languages"
p105
sI117
S'        ]),'
p106
sI118
S"    (T('F'), False, URL('default', 'index'), ["
p107
sI119
S"            (f.name, False, URL('default', 'pages_by_language', args=f.id)) for la in languages"
p108
sI120
S'        ]),'
p109
sI121
S"    (T('G'), False, URL('default', 'index'), ["
p110
sI122
S"            (la.name, False, URL('default', 'pages_by_language', args=la.id)) for la in languages"
p111
sI123
S'        ]),'
p112
ssg85
S'()'
p113
sg87
S'<module>'
p114
sasS'pyver'
p115
S'Python 2.7.12: /usr/bin/python (prefix: /usr)'
p116
sS'session'
p117
g59
(S'sp\t\x00\x00<div><table><tr><td style="font-weight:bold;vertical-align:top;">auth</td><td style="vertical-align:top;">:</td><td><div><table><tr><td style="font-weight:bold;vertical-align:top;">expiration</td><td style="vertical-align:top;">:</td><td><div>3600</div></td></tr><tr><td style="font-weight:bold;vertical-align:top;">hmac_key</td><td style="vertical-align:top;">:</td><td><div>18980e16-dd0c-4404-bdf1-7c8f1ea68e53</div></td></tr><tr><td style="font-weight:bold;vertical-align:top;">last_visit</td><td style="vertical-align:top;">:</td><td><div>datetime.datetime(2017, 10, 4, 10, 3, 53, 774822)</div></td></tr><tr><td style="font-weight:bold;vertical-align:top;">remember_me</td><td style="vertical-align:top;">:</td><td><div>False</div></td></tr><tr><td style="font-weight:bold;vertical-align:top;">user</td><td style="vertical-align:top;">:</td><td><div><table><tr><td style="font-weight:bold;vertical-align:top;">email</td><td style="vertical-align:top;">:</td><td><div>michaeldunga1@gmail.com</div></td></tr><tr><td style="font-weight:bold;vertical-align:top;">first_name</td><td style="vertical-align:top;">:</td><td><div>Michael</div></td></tr><tr><td style="font-weight:bold;vertical-align:top;">id</td><td style="vertical-align:top;">:</td><td><div>1L</div></td></tr><tr><td style="font-weight:bold;vertical-align:top;">last_name</td><td style="vertical-align:top;">:</td><td><div>Dunga</div></td></tr><tr><td style="font-weight:bold;vertical-align:top;">registration_id</td><td style="vertical-align:top;">:</td><td><div></div></td></tr><tr><td style="font-weight:bold;vertical-align:top;">registration_key</td><td style="vertical-align:top;">:</td><td><div></div></td></tr><tr><td style="font-weight:bold;vertical-align:top;">reset_password_key</td><td style="vertical-align:top;">:</td><td><div></div></td></tr></table></div></td></tr><tr><td style="font-weight:bold;vertical-align:top;">user_groups</td><td style="vertical-align:top;">:</td><td><div><table><tr><td style="font-weight:bold;vertical-align:top;">1</td><td style="vertical-align:top;">:</td><td><div>user_1</div></td></tr><tr><td style="font-weight:bold;vertical-align:top;">2</td><td style="vertical-align:top;">:</td><td><div>manager</div></td></tr></table></div></td></tr></table></div></td></tr><tr><td style="font-weight:bold;vertical-align:top;">flash</td><td style="vertical-align:top;">:</td><td><div>None</div></td></tr></table></div>'
tRp118
sS'etype'
p119
S"<type 'exceptions.NameError'>"
p120
sS'date'
p121
S'Wed Oct  4 10:03:54 2017'
p122
sS'response'
p123
g59
(S'sY,\x00\x00<div><table><tr><td style="font-weight:bold;vertical-align:top;">body</td><td style="vertical-align:top;">:</td><td><div>&lt;cStringIO.StringO object at 0x7fddd615ad88&gt;</div></td></tr><tr><td style="font-weight:bold;vertical-align:top;">cookies</td><td style="vertical-align:top;">:</td><td><div><table><tr><td style="font-weight:bold;vertical-align:top;">session_id_safaritext</td><td style="vertical-align:top;">:</td><td><div>127.0.0.1-df410217-a646-4137-92d3-96a53dc5ebfc<table><tr><td style="font-weight:bold;vertical-align:top;">comment</td><td style="vertical-align:top;">:</td><td><div></div></td></tr><tr><td style="font-weight:bold;vertical-align:top;">domain</td><td style="vertical-align:top;">:</td><td><div></div></td></tr><tr><td style="font-weight:bold;vertical-align:top;">expires</td><td style="vertical-align:top;">:</td><td><div></div></td></tr><tr><td style="font-weight:bold;vertical-align:top;">httponly</td><td style="vertical-align:top;">:</td><td><div></div></td></tr><tr><td style="font-weight:bold;vertical-align:top;">max-age</td><td style="vertical-align:top;">:</td><td><div></div></td></tr><tr><td style="font-weight:bold;vertical-align:top;">path</td><td style="vertical-align:top;">:</td><td><div>/</div></td></tr><tr><td style="font-weight:bold;vertical-align:top;">secure</td><td style="vertical-align:top;">:</td><td><div></div></td></tr><tr><td style="font-weight:bold;vertical-align:top;">version</td><td style="vertical-align:top;">:</td><td><div></div></td></tr></table></div></td></tr></table></div></td></tr><tr><td style="font-weight:bold;vertical-align:top;">delimiters</td><td style="vertical-align:top;">:</td><td><div><table><tr><td><div>{{</div></td></tr><tr><td><div>}}</div></td></tr></table></div></td></tr><tr><td style="font-weight:bold;vertical-align:top;">files</td><td style="vertical-align:top;">:</td><td><div><table></table></div></td></tr><tr><td style="font-weight:bold;vertical-align:top;">flash</td><td style="vertical-align:top;">:</td><td><div></div></td></tr><tr><td style="font-weight:bold;vertical-align:top;">form_label_separator</td><td style="vertical-align:top;">:</td><td><div>: </div></td></tr><tr><td style="font-weight:bold;vertical-align:top;">formstyle</td><td style="vertical-align:top;">:</td><td><div>table3cols</div></td></tr><tr><td style="font-weight:bold;vertical-align:top;">generic_patterns</td><td style="vertical-align:top;">:</td><td><div><table><tr><td><div>*</div></td></tr></table></div></td></tr><tr><td style="font-weight:bold;vertical-align:top;">google_analytics_id</td><td style="vertical-align:top;">:</td><td><div>None</div></td></tr><tr><td style="font-weight:bold;vertical-align:top;">headers</td><td style="vertical-align:top;">:</td><td><div><table><tr><td style="font-weight:bold;vertical-align:top;">X-Powered-By</td><td style="vertical-align:top;">:</td><td><div>web2py</div></td></tr></table></div></td></tr><tr><td style="font-weight:bold;vertical-align:top;">menu</td><td style="vertical-align:top;">:</td><td><div><table><tr><td><div><table><tr><td><div>New Pages</div></td></tr><tr><td><div>False</div></td></tr><tr><td><div>/</div></td></tr><tr><td><div><table></table></div></td></tr></table></div></td></tr><tr><td><div><table><tr><td><div>By Category</div></td></tr><tr><td><div>False</div></td></tr><tr><td><div>None</div></td></tr><tr><td><div><table><tr><td><div><table><tr><td><div>Biography</div></td></tr><tr><td><div>False</div></td></tr><tr><td><div>/pages_by_category/3</div></td></tr></table></div></td></tr><tr><td><div><table><tr><td><div>Business</div></td></tr><tr><td><div>False</div></td></tr><tr><td><div>/pages_by_category/2</div></td></tr></table></div></td></tr><tr><td><div><table><tr><td><div>Charity</div></td></tr><tr><td><div>False</div></td></tr><tr><td><div>/pages_by_category/10</div></td></tr></table></div></td></tr><tr><td><div><table><tr><td><div>Education</div></td></tr><tr><td><div>False</div></td></tr><tr><td><div>/pages_by_category/7</div></td></tr></table></div></td></tr><tr><td><div><table><tr><td><div>Entertainment</div></td></tr><tr><td><div>False</div></td></tr><tr><td><div>/pages_by_category/9</div></td></tr></table></div></td></tr><tr><td><div><table><tr><td><div>Music</div></td></tr><tr><td><div>False</div></td></tr><tr><td><div>/pages_by_category/5</div></td></tr></table></div></td></tr><tr><td><div><table><tr><td><div>Politics</div></td></tr><tr><td><div>False</div></td></tr><tr><td><div>/pages_by_category/1</div></td></tr></table></div></td></tr><tr><td><div><table><tr><td><div>Religion</div></td></tr><tr><td><div>False</div></td></tr><tr><td><div>/pages_by_category/6</div></td></tr></table></div></td></tr><tr><td><div><table><tr><td><div>Sience</div></td></tr><tr><td><div>False</div></td></tr><tr><td><div>/pages_by_category/4</div></td></tr></table></div></td></tr><tr><td><div><table><tr><td><div>Sports</div></td></tr><tr><td><div>False</div></td></tr><tr><td><div>/pages_by_category/8</div></td></tr></table></div></td></tr></table></div></td></tr></table></div></td></tr><tr><td><div><table><tr><td><div>By Language</div></td></tr><tr><td><div>False</div></td></tr><tr><td><div>/</div></td></tr><tr><td><div><table><tr><td><div><table><tr><td><div> Abenaki</div></td></tr><tr><td><div>False</div></td></tr><tr><td><div>/pages_by_language/2</div></td></tr></table></div></td></tr><tr><td><div><table><tr><td><div>Abaza</div></td></tr><tr><td><div>False</div></td></tr><tr><td><div>/pages_by_language/1</div></td></tr></table></div></td></tr><tr><td><div><table><tr><td><div>English</div></td></tr><tr><td><div>False</div></td></tr><tr><td><div>/pages_by_language/3</div></td></tr></table></div></td></tr><tr><td><div><table><tr><td><div>acholi</div></td></tr><tr><td><div>False</div></td></tr><tr><td><div>/pages_by_language/7</div></td></tr></table></div></td></tr><tr><td><div><table><tr><td><div>aembu</div></td></tr><tr><td><div>False</div></td></tr><tr><td><div>/pages_by_language/8</div></td></tr></table></div></td></tr><tr><td><div><table><tr><td><div>agikuyu</div></td></tr><tr><td><div>False</div></td></tr><tr><td><div>/pages_by_language/4</div></td></tr></table></div></td></tr><tr><td><div><table><tr><td><div>agiriama</div></td></tr><tr><td><div>False</div></td></tr><tr><td><div>/pages_by_language/9</div></td></tr></table></div></td></tr><tr><td><div><table><tr><td><div>akamba</div></td></tr><tr><td><div>False</div></td></tr><tr><td><div>/pages_by_language/5</div></td></tr></table></div></td></tr><tr><td><div><table><tr><td><div>ameru</div></td></tr><tr><td><div>False</div></td></tr><tr><td><div>/pages_by_language/6</div></td></tr></table></div></td></tr><tr><td><div><table><tr><td><div>endebe</div></td></tr><tr><td><div>False</div></td></tr><tr><td><div>/pages_by_language/10</div></td></tr></table></div></td></tr><tr><td><div><table><tr><td><div>enyaruanda</div></td></tr><tr><td><div>False</div></td></tr><tr><td><div>/pages_by_language/11</div></td></tr></table></div></td></tr><tr><td><div><table><tr><td><div>ewadigu</div></td></tr><tr><td><div>False</div></td></tr><tr><td><div>/pages_by_language/12</div></td></tr></table></div></td></tr></table></div></td></tr></table></div></td></tr><tr><td><div><table><tr><td><div>By Me</div></td></tr><tr><td><div>False</div></td></tr><tr><td><div>/profile</div></td></tr><tr><td><div><table></table></div></td></tr></table></div></td></tr><tr><td><div><table><tr><td><div>Create</div></td></tr><tr><td><div>False</div></td></tr><tr><td><div>/create</div></td></tr><tr><td><div><table></table></div></td></tr></table></div></td></tr><tr><td><div><table><tr><td><div>Write</div></td></tr><tr><td><div>False</div></td></tr><tr><td><div>/write</div></td></tr><tr><td><div><table></table></div></td></tr></table></div></td></tr><tr><td><div><table><tr><td><div>Search</div></td></tr><tr><td><div>False</div></td></tr><tr><td><div>/search</div></td></tr><tr><td><div><table></table></div></td></tr></table></div></td></tr></table></div></td></tr><tr><td style="font-weight:bold;vertical-align:top;">meta</td><td style="vertical-align:top;">:</td><td><div><table></table></div></td></tr><tr><td style="font-weight:bold;vertical-align:top;">models_to_run</td><td style="vertical-align:top;">:</td><td><div><table><tr><td><div>^\\w+\\.py$</div></td></tr><tr><td><div>^appadmin/\\w+\\.py$</div></td></tr><tr><td><div>^appadmin/hooks/\\w+\\.py$</div></td></tr></table></div></td></tr><tr><td style="font-weight:bold;vertical-align:top;">postprocessing</td><td style="vertical-align:top;">:</td><td><div><table></table></div></td></tr><tr><td style="font-weight:bold;vertical-align:top;">session_client</td><td style="vertical-align:top;">:</td><td><div>127.0.0.1</div></td></tr><tr><td style="font-weight:bold;vertical-align:top;">session_cookie_compression_level</td><td style="vertical-align:top;">:</td><td><div>None</div></td></tr><tr><td style="font-weight:bold;vertical-align:top;">session_cookie_expires</td><td style="vertical-align:top;">:</td><td><div>None</div></td></tr><tr><td style="font-weight:bold;vertical-align:top;">session_data_name</td><td style="vertical-align:top;">:</td><td><div>session_data_safaritext</div></td></tr><tr><td style="font-weight:bold;vertical-align:top;">session_file</td><td style="vertical-align:top;">:</td><td><div>&lt;open file &#x27;/home/dunga/web2py/applications/safaritext/sessions/147/1eb/127.0.0.1-df410217-a646-4137-92d3-96a53dc5ebfc&#x27;, mode &#x27;rb+&#x27; at 0x7fddd5dc05d0&gt;</div></td></tr><tr><td style="font-weight:bold;vertical-align:top;">session_filename</td><td style="vertical-align:top;">:</td><td><div>/home/dunga/web2py/applications/safaritext/sessions/127.0.0.1-df410217-a646-4137-92d3-96a53dc5ebfc</div></td></tr><tr><td style="font-weight:bold;vertical-align:top;">session_hash</td><td style="vertical-align:top;">:</td><td><div>f477e8f11b19111ceea4403a93d1d207</div></td></tr><tr><td style="font-weight:bold;vertical-align:top;">session_id</td><td style="vertical-align:top;">:</td><td><div>127.0.0.1-df410217-a646-4137-92d3-96a53dc5ebfc</div></td></tr><tr><td style="font-weight:bold;vertical-align:top;">session_id_name</td><td style="vertical-align:top;">:</td><td><div>session_id_safaritext</div></td></tr><tr><td style="font-weight:bold;vertical-align:top;">session_locked</td><td style="vertical-align:top;">:</td><td><div>True</div></td></tr><tr><td style="font-weight:bold;vertical-align:top;">session_masterapp</td><td style="vertical-align:top;">:</td><td><div>safaritext</div></td></tr><tr><td style="font-weight:bold;vertical-align:top;">session_new</td><td style="vertical-align:top;">:</td><td><div>False</div></td></tr><tr><td style="font-weight:bold;vertical-align:top;">session_storage_type</td><td style="vertical-align:top;">:</td><td><div>file</div></td></tr><tr><td style="font-weight:bold;vertical-align:top;">status</td><td style="vertical-align:top;">:</td><td><div>200</div></td></tr><tr><td style="font-weight:bold;vertical-align:top;">subtitle</td><td style="vertical-align:top;">:</td><td><div></div></td></tr><tr><td style="font-weight:bold;vertical-align:top;">title</td><td style="vertical-align:top;">:</td><td><div>Safaritext</div></td></tr><tr><td style="font-weight:bold;vertical-align:top;">view</td><td style="vertical-align:top;">:</td><td><div>appadmin/hooks.html</div></td></tr></table></div>'
tRp124
sS'locals'
p125
(dp126
S'Service'
p127
S"<class 'gluon.tools.Service'>"
p128
sS'TR'
p129
S"<class 'gluon.html.TR'>"
p130
sS'PY2'
p131
S'True'
p132
sS'OBJECT'
p133
S"<class 'gluon.html.OBJECT'>"
p134
sS'SQLDB'
p135
S"<class 'pydal.base.DAL'>"
p136
sg117
S"<Storage {'_auth_next': None, 'flash': None, 'au...c9de1', '3d9ffff1-ed00-4b30-87fc-86fe616440a3']}>"
p137
sS'reverse_geocode'
p138
S'<function reverse_geocode>'
p139
sS'BR'
p140
S"<class 'gluon.html.BR'>"
p141
sS'local_import'
p142
S'<function <lambda>>'
p143
sS'OPTGROUP'
p144
S"<class 'gluon.html.OPTGROUP'>"
p145
sS'LI'
p146
S"<class 'gluon.html.LI'>"
p147
sS'redirect'
p148
S'<function redirect>'
p149
sS'IS_INT_IN_RANGE'
p150
S"<class 'gluon.validators.IS_INT_IN_RANGE'>"
p151
sS'to_bytes'
p152
S'<function to_bytes>'
p153
sS'IS_LOWER'
p154
S"<class 'gluon.validators.IS_LOWER'>"
p155
sS'IS_STRONG'
p156
S"<class 'gluon.validators.IS_STRONG'>"
p157
sS'c_languages'
p158
S'<Rows (0)>'
p159
sS'Recaptcha'
p160
S"<class 'gluon.tools.Recaptcha'>"
p161
sS'cache'
p162
S'<gluon.cache.Cache object>'
p163
sS'IS_IN_DB'
p164
S"<class 'gluon.validators.IS_IN_DB'>"
p165
sS'languages'
p166
S'<Rows (12)>'
p167
sS'TAG'
p168
S'<gluon.html.__TAG__ object>'
p169
sS'SQLField'
p170
S"<class 'pydal.objects.Field'>"
p171
sS'mail'
p172
S'<gluon.tools.Mail object>'
p173
sS'm_languages'
p174
S'<Rows (0)>'
p175
sS'BODY'
p176
S"<class 'gluon.html.BODY'>"
p177
sS'IS_DATE_IN_RANGE'
p178
S"<class 'gluon.validators.IS_DATE_IN_RANGE'>"
p179
sS'TH'
p180
S"<class 'gluon.html.TH'>"
p181
sS'ON'
p182
g132
sS'URL'
p183
S'<function URL>'
p184
sS'__file__'
p185
S"'/home/dunga/web2py/applications/safaritext/models/menu.py'"
p186
sS'db'
p187
S'<DAL uri="sqlite://storage.sqlite">'
p188
sS'auth'
p189
S'<gluon.tools.Auth object>'
p190
sS'P'
S"<class 'gluon.html.P'>"
p191
sS'T'
S'<gluon.languages.translator object>'
p192
sS'iteritems'
p193
S'<function <lambda>>'
p194
sS'XHTML'
p195
S"<class 'gluon.html.XHTML'>"
p196
sS'categories'
p197
S'<Rows (10)>'
p198
sS'v_languages'
p199
S'<Rows (0)>'
p200
sS'OL'
p201
S"<class 'gluon.html.OL'>"
p202
sS'd'
S"<Row {'id': 12L, 'name': 'ewadigu'}>"
p203
sS'TEXTAREA'
p204
S"<class 'gluon.html.TEXTAREA'>"
p205
sS'settings'
p206
S"<Storage {'layout_theme': 'Default', 'subtitle':...l_server': 'localhost', 'login_method': 'local'}>"
p207
sS'MENU'
p208
S"<class 'gluon.html.MENU'>"
p209
sS'IS_IMAGE'
p210
S"<class 'gluon.validators.IS_IMAGE'>"
p211
sS'LINK'
p212
S"<class 'gluon.html.LINK'>"
p213
sS'p_languages'
p214
S'<Rows (0)>'
p215
sS'z_languages'
p216
S'<Rows (0)>'
p217
sS'EM'
p218
S"<class 'gluon.html.EM'>"
p219
sS'CODE'
p220
S"<class 'gluon.html.CODE'>"
p221
sS'HTTP'
p222
S"<class 'gluon.http.HTTP'>"
p223
sS'HR'
p224
S"<class 'gluon.html.HR'>"
p225
sS'IS_DATETIME'
p226
S"<class 'gluon.validators.IS_DATETIME'>"
p227
sS'Storage'
p228
S"<class 'gluon.storage.Storage'>"
p229
sS'HEAD'
p230
S"<class 'gluon.html.HEAD'>"
p231
sS'LABEL'
p232
S"<class 'gluon.html.LABEL'>"
p233
sS'k_languages'
p234
S'<Rows (0)>'
p235
sS'CLEANUP'
p236
S"<class 'gluon.validators.CLEANUP'>"
p237
sS'plugins'
p238
S'<gluon.tools.PluginManager object>'
p239
sS'SELECT'
p240
S"<class 'gluon.html.SELECT'>"
p241
sS'l_languages'
p242
S'<Rows (0)>'
p243
sS'CENTER'
p244
S"<class 'gluon.html.CENTER'>"
p245
sS'a_languages'
p246
S'<Rows (7)>'
p247
sS'Crud'
p248
S"<class 'gluon.tools.Crud'>"
p249
sS'Auth'
p250
S"<class 'gluon.tools.Auth'>"
p251
sS'IS_EQUAL_TO'
p252
S"<class 'gluon.validators.IS_EQUAL_TO'>"
p253
sS'HTML'
p254
S"<class 'gluon.html.HTML'>"
p255
sS'w_languages'
p256
S'<Rows (0)>'
p257
sS'SQLFORM'
p258
S"<class 'gluon.sqlhtml.SQLFORM'>"
p259
sS'LOAD'
p260
S'<function LOAD>'
p261
sS'PRE'
p262
S"<class 'gluon.html.PRE'>"
p263
sS'e_languages'
p264
S'<Rows (4)>'
p265
sS'x_languages'
p266
S'<Rows (0)>'
p267
sS'FIELDSET'
p268
S"<class 'gluon.html.FIELDSET'>"
p269
sS'b_languages'
p270
S'<Rows (0)>'
p271
sS'__builtins__'
p272
S"{'ArithmeticError': <type 'exceptions.ArithmeticError'>, 'AssertionError': <type 'exceptions.AssertionError'>, 'AttributeError': <type 'exceptions.AttributeError'>, 'BaseException': <type 'exceptions.BaseException'>, 'BufferError': <type 'exceptions.BufferError'>, 'BytesWarning': <type 'exceptions.BytesWarning'>, 'DeprecationWarning': <type 'exceptions.DeprecationWarning'>, 'EOFError': <type 'exceptions.EOFError'>, 'Ellipsis': Ellipsis, 'EnvironmentError': <type 'exceptions.EnvironmentError'>, ...}"
p273
sS'embed64'
p274
S'<function embed64>'
p275
sS'IS_LIST_OF'
p276
S"<class 'gluon.validators.IS_LIST_OF'>"
p277
sS'INPUT'
p278
S"<class 'gluon.html.INPUT'>"
p279
sS'EMBED'
p280
S"<class 'gluon.html.EMBED'>"
p281
sS'c'
S"<Row {'id': 12L, 'name': 'ewadigu'}>"
p282
sS'H2'
p283
S"<class 'gluon.html.H2'>"
p284
sS'H3'
p285
S"<class 'gluon.html.H3'>"
p286
sS'BUTTON'
p287
S"<class 'gluon.html.BUTTON'>"
p288
sS'la'
p289
S"<Row {'id': 2L, 'name': ' Abenaki'}>"
p290
sS'H6'
p291
S"<class 'gluon.html.H6'>"
p292
sS'H4'
p293
S"<class 'gluon.html.H4'>"
p294
sS'H5'
p295
S"<class 'gluon.html.H5'>"
p296
sS'UL'
p297
S"<class 'gluon.html.UL'>"
p298
sS'IS_UPPER'
p299
S"<class 'gluon.validators.IS_UPPER'>"
p300
sS'xmlescape'
p301
S'<function xmlescape>'
p302
sS'IS_TIME'
p303
S"<class 'gluon.validators.IS_TIME'>"
p304
sS'OPTION'
p305
S"<class 'gluon.html.OPTION'>"
p306
sS'TITLE'
p307
S"<class 'gluon.html.TITLE'>"
p308
sS'CRYPT'
p309
S"<class 'gluon.validators.CRYPT'>"
p310
sS'ca'
p311
S"<Row {'id': 8L, 'name': 'Sports'}>"
p312
sS'IS_EMPTY_OR'
p313
S"<class 'gluon.validators.IS_EMPTY_OR'>"
p314
sS'MARKMIN'
p315
S"<class 'gluon.html.MARKMIN'>"
p316
sS'Recaptcha2'
p317
S"<class 'gluon.tools.Recaptcha2'>"
p318
sS'__name__'
p319
S"'__restricted__'"
p320
sS's_languages'
p321
S'<Rows (0)>'
p322
sS'g_languages'
p323
S'<Rows (0)>'
p324
sS'STRONG'
p325
S"<class 'gluon.html.STRONG'>"
p326
sS'COL'
p327
S"<class 'gluon.html.COL'>"
p328
sS'CKEditor'
p329
S"<class 'applications.safaritext.modules.plugin_ckeditor.CKEditor'>"
p330
sS'service'
p331
S'<gluon.tools.Service object>'
p332
sS'SCRIPT'
p333
S"<class 'gluon.html.SCRIPT'>"
p334
sS'f_languages'
p335
S'<Rows (0)>'
p336
sS'geocode'
p337
S'<function geocode>'
p338
sS'ANY_OF'
p339
S"<class 'gluon.validators.ANY_OF'>"
p340
sS'TABLE'
p341
S"<class 'gluon.html.TABLE'>"
p342
sg36
S'\'\\nresponse.logo = A(B(\\\'safaritext\\\'), XML(\\\'&trade;...text.com/",\\n                  _id="web2py-logo")\\n\''
p343
sS'IS_LENGTH'
p344
S"<class 'gluon.validators.IS_LENGTH'>"
p345
sS'IS_IPV6'
p346
S"<class 'gluon.validators.IS_IPV6'>"
p347
sS'XML'
p348
S"<class 'gluon.html.XML'>"
p349
sS'a'
S"<Row {'id': 9L, 'name': 'agiriama'}>"
p350
sS'B'
S"<class 'gluon.html.B'>"
p351
sS'IMG'
p352
S"<class 'gluon.html.IMG'>"
p353
sS'SQLTABLE'
p354
S"<class 'gluon.sqlhtml.SQLTABLE'>"
p355
sS'reduce'
p356
S'<built-in function reduce>'
p357
sS'IS_MATCH'
p358
S"<class 'gluon.validators.IS_MATCH'>"
p359
sS'IS_ALPHANUMERIC'
p360
S"<class 'gluon.validators.IS_ALPHANUMERIC'>"
p361
sS'y_languages'
p362
S'<Rows (0)>'
p363
sS'b'
S"<Row {'id': 12L, 'name': 'ewadigu'}>"
p364
sS'SPAN'
p365
S"<class 'gluon.html.SPAN'>"
p366
sS'IS_JSON'
p367
S"<class 'gluon.validators.IS_JSON'>"
p368
sS'IS_IPADDRESS'
p369
S"<class 'gluon.validators.IS_IPADDRESS'>"
p370
sS'IS_SLUG'
p371
S"<class 'gluon.validators.IS_SLUG'>"
p372
sS'IS_IPV4'
p373
S"<class 'gluon.validators.IS_IPV4'>"
p374
sS'u_languages'
p375
S'<Rows (0)>'
p376
sS'BEAUTIFY'
p377
S"<class 'gluon.html.BEAUTIFY'>"
p378
sS'META'
p379
S"<class 'gluon.html.META'>"
p380
sS'r_languages'
p381
S'<Rows (0)>'
p382
sS'fetch'
p383
S'<function fetch>'
p384
sS'H1'
p385
S"<class 'gluon.html.H1'>"
p386
sS'IS_DATE'
p387
S"<class 'gluon.validators.IS_DATE'>"
p388
sS'IS_EMAIL'
p389
S"<class 'gluon.validators.IS_EMAIL'>"
p390
sS'IS_NOT_EMPTY'
p391
S"<class 'gluon.validators.IS_NOT_EMPTY'>"
p392
sS'xrange'
p393
S"<type 'xrange'>"
p394
sS'd_languages'
p395
S'<Rows (0)>'
p396
sS'TBODY'
p397
S"<class 'gluon.html.TBODY'>"
p398
sS'CAT'
p399
S"<class 'gluon.html.CAT'>"
p400
sS'Field'
p401
S"<class 'pydal.objects.Field'>"
p402
sS'IS_LIST_OF_EMAILS'
p403
S"<class 'gluon.validators.IS_LIST_OF_EMAILS'>"
p404
sg58
S"<Storage {'_vars': None, 'function': 'hooks', 'c...: '/home/dunga/web2py/applications/safaritext/'}>"
p405
sS'Mail'
p406
S"<class 'gluon.tools.Mail'>"
p407
sS'DIV'
p408
S"<class 'gluon.html.DIV'>"
p409
sS'LEGEND'
p410
S"<class 'gluon.html.LEGEND'>"
p411
sS'to_native'
p412
S'<function to_native>'
p413
sS'COLGROUP'
p414
S"<class 'gluon.html.COLGROUP'>"
p415
sS'DAL'
p416
S"<class 'pydal.base.DAL'>"
p417
sS'TT'
p418
S"<class 'gluon.html.TT'>"
p419
sS'o_languages'
p420
S'<Rows (0)>'
p421
sS'i_languages'
p422
S'<Rows (0)>'
p423
sS'__package__'
p424
S'None'
p425
sS'IFRAME'
p426
S"<class 'gluon.html.IFRAME'>"
p427
sS'TD'
p428
S"<class 'gluon.html.TD'>"
p429
sS'PluginManager'
p430
S"<class 'gluon.tools.PluginManager'>"
p431
sS'IS_URL'
p432
S"<class 'gluon.validators.IS_URL'>"
p433
sS'A'
S"<class 'gluon.html.A'>"
p434
sS'STYLE'
p435
S"<class 'gluon.html.STYLE'>"
p436
sS'IS_DATETIME_IN_RANGE'
p437
S"<class 'gluon.validators.IS_DATETIME_IN_RANGE'>"
p438
sS'FORM'
p439
S"<class 'gluon.html.FORM'>"
p440
sS't_languages'
p441
S'<Rows (0)>'
p442
sS'I'
S"<class 'gluon.html.I'>"
p443
sS'crud'
p444
S'<gluon.tools.Crud object>'
p445
sS'j_languages'
p446
S'<Rows (0)>'
p447
sS'IS_NOT_IN_DB'
p448
S"<class 'gluon.validators.IS_NOT_IN_DB'>"
p449
sS'h_languages'
p450
S'<Rows (0)>'
p451
sS'q_languages'
p452
S'<Rows (0)>'
p453
sg123
S"<Storage {'body': <cStringIO.StringO object at 0... 0x7fddd4e5db18>, 'view': 'appadmin/hooks.html'}>"
p454
sS'THEAD'
p455
S"<class 'gluon.html.THEAD'>"
p456
sS'Wiki'
p457
S"<class 'gluon.tools.Wiki'>"
p458
sS'IS_NULL_OR'
p459
S"<class 'gluon.validators.IS_EMPTY_OR'>"
p460
sS'e'
S"<Row {'id': 12L, 'name': 'ewadigu'}>"
p461
sS'prettydate'
p462
S'<function prettydate>'
p463
sS'IS_FLOAT_IN_RANGE'
p464
S"<class 'gluon.validators.IS_FLOAT_IN_RANGE'>"
p465
sS'IS_EXPR'
p466
S"<class 'gluon.validators.IS_EXPR'>"
p467
sS'IS_IN_SET'
p468
S"<class 'gluon.validators.IS_IN_SET'>"
p469
sS'IS_UPLOAD_FILENAME'
p470
S"<class 'gluon.validators.IS_UPLOAD_FILENAME'>"
p471
sS'n_languages'
p472
S'<Rows (0)>'
p473
sS'IS_DECIMAL_IN_RANGE'
p474
S"<class 'gluon.validators.IS_DECIMAL_IN_RANGE'>"
p475
sS'ASSIGNJS'
p476
S'<function ASSIGNJS>'
p477
sS'TFOOT'
p478
S"<class 'gluon.html.TFOOT'>"
p479
sssS'traceback'
p480
S'Traceback (most recent call last):\n  File "/home/dunga/web2py/gluon/restricted.py", line 219, in restricted\n    exec(ccode, environment)\n  File "/home/dunga/web2py/applications/safaritext/models/menu.py", line 119, in <module>\n    (f.name, False, URL(\'default\', \'pages_by_language\', args=f.id)) for la in languages\nNameError: name \'f\' is not defined\n'
p481
s.